

Microchip MPLAB XC8 Assembler V2.41 build 20230208172133 
                                                                                               Wed Nov 15 00:48:51 2023

Microchip MPLAB XC8 C Compiler v2.41 (Free license) build 20230208172133 Og1 
     1                           	processor	16F877
     2                           	pagewidth 120
     3                           	opt	flic
     4                           	psect	idataBANK0,global,class=CODE,delta=2,noexec
     5                           	psect	idataBANK1,global,class=CODE,delta=2,noexec
     6                           	psect	strings,global,class=STRING,delta=2,noexec
     7                           	psect	stringtext,global,reloc=256,class=STRCODE,delta=2,noexec
     8                           	psect	cinit,global,class=CODE,merge=1,delta=2
     9                           	psect	bssCOMMON,global,class=COMMON,space=1,delta=1,noexec
    10                           	psect	bssBANK0,global,class=BANK0,space=1,delta=1,noexec
    11                           	psect	dataBANK0,global,class=BANK0,space=1,delta=1,noexec
    12                           	psect	bssBANK1,global,class=BANK1,space=1,delta=1,noexec
    13                           	psect	dataBANK1,global,class=BANK1,space=1,delta=1,noexec
    14                           	psect	bssBANK3,global,class=BANK3,space=1,delta=1,noexec
    15                           	psect	inittext,global,class=CODE,delta=2
    16                           	psect	clrtext,global,class=CODE,delta=2
    17                           	psect	cstackBANK3,global,class=BANK3,space=1,delta=1,noexec
    18                           	psect	cstackCOMMON,global,class=COMMON,space=1,delta=1,noexec
    19                           	psect	cstackBANK0,global,class=BANK0,space=1,delta=1,noexec
    20                           	psect	maintext,global,class=CODE,split=1,delta=2
    21                           	psect	text1,local,class=CODE,merge=1,delta=2
    22                           	psect	text2,local,class=CODE,merge=1,delta=2
    23                           	psect	text3,local,class=CODE,merge=1,delta=2,group=2
    24                           	psect	text4,local,class=CODE,merge=1,delta=2
    25                           	psect	text5,local,class=CODE,merge=1,delta=2
    26                           	psect	text6,local,class=CODE,merge=1,delta=2
    27                           	psect	text7,local,class=CODE,merge=1,delta=2
    28                           	psect	text8,local,class=CODE,merge=1,delta=2
    29                           	psect	text9,local,class=CODE,merge=1,delta=2,group=2
    30                           	psect	text10,local,class=CODE,merge=1,delta=2
    31                           	psect	text11,local,class=CODE,merge=1,delta=2,group=2
    32                           	psect	text12,local,class=CODE,merge=1,delta=2
    33                           	psect	text13,local,class=CODE,merge=1,delta=2
    34                           	psect	text14,local,class=CODE,merge=1,delta=2
    35                           	psect	text15,local,class=CODE,merge=1,delta=2
    36                           	psect	text16,local,class=CODE,merge=1,delta=2
    37                           	psect	text17,local,class=CODE,merge=1,delta=2,group=1
    38                           	psect	text18,local,class=CODE,merge=1,delta=2
    39                           	psect	text19,local,class=CODE,merge=1,delta=2
    40                           	psect	text20,local,class=CODE,merge=1,delta=2
    41                           	psect	text21,local,class=CODE,merge=1,delta=2
    42                           	psect	text22,local,class=CODE,merge=1,delta=2
    43                           	psect	text23,local,class=CODE,merge=1,delta=2
    44                           	psect	text24,local,class=CODE,merge=1,delta=2
    45                           	psect	text25,local,class=CODE,merge=1,delta=2
    46                           	psect	text26,local,class=CODE,merge=1,delta=2
    47                           	psect	text27,local,class=CODE,merge=1,delta=2
    48                           	psect	text28,local,class=CODE,merge=1,delta=2
    49                           	psect	text29,local,class=CODE,merge=1,delta=2,group=2
    50                           	psect	text30,local,class=CODE,merge=1,delta=2
    51                           	psect	text31,local,class=CODE,merge=1,delta=2
    52                           	psect	text32,local,class=CODE,merge=1,delta=2
    53                           	psect	text33,local,class=CODE,merge=1,delta=2
    54                           	psect	text34,local,class=CODE,merge=1,delta=2
    55                           	psect	text35,local,class=CODE,merge=1,delta=2,group=1
    56                           	psect	text36,local,class=CODE,merge=1,delta=2,group=1
    57                           	psect	text37,local,class=CODE,merge=1,delta=2
    58                           	psect	text38,local,class=CODE,merge=1,delta=2,group=1
    59                           	psect	text39,local,class=CODE,merge=1,delta=2
    60                           	psect	text40,local,class=CODE,merge=1,delta=2
    61                           	psect	text41,local,class=CODE,merge=1,delta=2
    62                           	psect	text42,local,class=CODE,merge=1,delta=2
    63                           	psect	text43,local,class=CODE,merge=1,delta=2
    64                           	psect	text44,local,class=CODE,merge=1,delta=2
    65                           	psect	text45,local,class=CODE,merge=1,delta=2
    66                           	psect	text46,local,class=CODE,merge=1,delta=2
    67                           	psect	text47,local,class=CODE,merge=1,delta=2
    68                           	psect	text48,local,class=CODE,merge=1,delta=2
    69                           	psect	text49,local,class=CODE,merge=1,delta=2
    70                           	psect	text50,local,class=CODE,merge=1,delta=2,group=1
    71                           	psect	text51,local,class=CODE,merge=1,delta=2
    72                           	psect	intentry,global,class=CODE,delta=2
    73                           	psect	config,global,abs,ovrld,class=CONFIG,space=4,delta=2,noexec
    74                           	dabs	1,0x7E,2
    75     0000                     
    76                           ; Version 2.20
    77                           ; Generated 12/02/2020 GMT
    78                           ; 
    79                           ; Copyright © 2020, Microchip Technology Inc. and its subsidiaries ("Microchip")
    80                           ; All rights reserved.
    81                           ; 
    82                           ; This software is developed by Microchip Technology Inc. and its subsidiaries ("Microch
      +                          ip").
    83                           ; 
    84                           ; Redistribution and use in source and binary forms, with or without modification, are
    85                           ; permitted provided that the following conditions are met:
    86                           ; 
    87                           ;     1. Redistributions of source code must retain the above copyright notice, this lis
      +                          t of
    88                           ;        conditions and the following disclaimer.
    89                           ; 
    90                           ;     2. Redistributions in binary form must reproduce the above copyright notice, this 
      +                          list
    91                           ;        of conditions and the following disclaimer in the documentation and/or other
    92                           ;        materials provided with the distribution.
    93                           ; 
    94                           ;     3. Microchip's name may not be used to endorse or promote products derived from th
      +                          is
    95                           ;        software without specific prior written permission.
    96                           ; 
    97                           ; THIS SOFTWARE IS PROVIDED BY MICROCHIP "AS IS" AND ANY EXPRESS OR IMPLIED WARRANTIES,
    98                           ; INCLUDING, BUT NOT LIMITED TO, THE IMPLIED WARRANTIES OF MERCHANTABILITY AND FITNESS F
      +                          OR
    99                           ; PURPOSE ARE DISCLAIMED.  IN NO EVENT SHALL MICROCHIP BE LIABLE FOR ANY DIRECT, INDIREC
      +                          T,
   100                           ; INCIDENTAL, SPECIAL, EXEMPLARY, OR CONSEQUENTIAL DAMAGES (INCLUDING BUT NOT LIMITED TO
   101                           ; PROCUREMENT OF SUBSTITUTE GOODS OR SERVICES; LOSS OF USE, DATA OR PROFITS; OR BUSINESS
   102                           ; INTERRUPTION) HOWSOEVER CAUSED AND ON ANY THEORY OF LIABILITY, WHETHER IN CONTRACT, ST
      +                          RICT
   103                           ; LIABILITY, OR TORT (INCLUDING NEGLIGENCE OR OTHERWISE) ARISING IN ANY WAY OUT OF THE U
      +                          SE OF
   104                           ; THIS SOFTWARE, EVEN IF ADVISED OF THE POSSIBILITY OF SUCH DAMAGE.
   105                           ; 
   106                           ; 
   107                           ; Code-generator required, PIC16F877 Definitions
   108                           ; 
   109                           ; SFR Addresses
   110     0000                     	;# 
   111     0001                     	;# 
   112     0002                     	;# 
   113     0003                     	;# 
   114     0004                     	;# 
   115     0005                     	;# 
   116     0006                     	;# 
   117     0007                     	;# 
   118     0008                     	;# 
   119     0009                     	;# 
   120     000A                     	;# 
   121     000B                     	;# 
   122     000C                     	;# 
   123     000D                     	;# 
   124     000E                     	;# 
   125     000E                     	;# 
   126     000F                     	;# 
   127     0010                     	;# 
   128     0011                     	;# 
   129     0012                     	;# 
   130     0013                     	;# 
   131     0014                     	;# 
   132     0015                     	;# 
   133     0015                     	;# 
   134     0016                     	;# 
   135     0017                     	;# 
   136     0018                     	;# 
   137     0019                     	;# 
   138     001A                     	;# 
   139     001B                     	;# 
   140     001B                     	;# 
   141     001C                     	;# 
   142     001D                     	;# 
   143     001E                     	;# 
   144     001F                     	;# 
   145     0081                     	;# 
   146     0085                     	;# 
   147     0086                     	;# 
   148     0087                     	;# 
   149     0088                     	;# 
   150     0089                     	;# 
   151     008C                     	;# 
   152     008D                     	;# 
   153     008E                     	;# 
   154     0091                     	;# 
   155     0092                     	;# 
   156     0093                     	;# 
   157     0094                     	;# 
   158     0098                     	;# 
   159     0099                     	;# 
   160     009E                     	;# 
   161     009F                     	;# 
   162     010C                     	;# 
   163     010D                     	;# 
   164     010E                     	;# 
   165     010F                     	;# 
   166     018C                     	;# 
   167     018D                     	;# 
   168     0000                     	;# 
   169     0001                     	;# 
   170     0002                     	;# 
   171     0003                     	;# 
   172     0004                     	;# 
   173     0005                     	;# 
   174     0006                     	;# 
   175     0007                     	;# 
   176     0008                     	;# 
   177     0009                     	;# 
   178     000A                     	;# 
   179     000B                     	;# 
   180     000C                     	;# 
   181     000D                     	;# 
   182     000E                     	;# 
   183     000E                     	;# 
   184     000F                     	;# 
   185     0010                     	;# 
   186     0011                     	;# 
   187     0012                     	;# 
   188     0013                     	;# 
   189     0014                     	;# 
   190     0015                     	;# 
   191     0015                     	;# 
   192     0016                     	;# 
   193     0017                     	;# 
   194     0018                     	;# 
   195     0019                     	;# 
   196     001A                     	;# 
   197     001B                     	;# 
   198     001B                     	;# 
   199     001C                     	;# 
   200     001D                     	;# 
   201     001E                     	;# 
   202     001F                     	;# 
   203     0081                     	;# 
   204     0085                     	;# 
   205     0086                     	;# 
   206     0087                     	;# 
   207     0088                     	;# 
   208     0089                     	;# 
   209     008C                     	;# 
   210     008D                     	;# 
   211     008E                     	;# 
   212     0091                     	;# 
   213     0092                     	;# 
   214     0093                     	;# 
   215     0094                     	;# 
   216     0098                     	;# 
   217     0099                     	;# 
   218     009E                     	;# 
   219     009F                     	;# 
   220     010C                     	;# 
   221     010D                     	;# 
   222     010E                     	;# 
   223     010F                     	;# 
   224     018C                     	;# 
   225     018D                     	;# 
   226     0000                     	;# 
   227     0001                     	;# 
   228     0002                     	;# 
   229     0003                     	;# 
   230     0004                     	;# 
   231     0005                     	;# 
   232     0006                     	;# 
   233     0007                     	;# 
   234     0008                     	;# 
   235     0009                     	;# 
   236     000A                     	;# 
   237     000B                     	;# 
   238     000C                     	;# 
   239     000D                     	;# 
   240     000E                     	;# 
   241     000E                     	;# 
   242     000F                     	;# 
   243     0010                     	;# 
   244     0011                     	;# 
   245     0012                     	;# 
   246     0013                     	;# 
   247     0014                     	;# 
   248     0015                     	;# 
   249     0015                     	;# 
   250     0016                     	;# 
   251     0017                     	;# 
   252     0018                     	;# 
   253     0019                     	;# 
   254     001A                     	;# 
   255     001B                     	;# 
   256     001B                     	;# 
   257     001C                     	;# 
   258     001D                     	;# 
   259     001E                     	;# 
   260     001F                     	;# 
   261     0081                     	;# 
   262     0085                     	;# 
   263     0086                     	;# 
   264     0087                     	;# 
   265     0088                     	;# 
   266     0089                     	;# 
   267     008C                     	;# 
   268     008D                     	;# 
   269     008E                     	;# 
   270     0091                     	;# 
   271     0092                     	;# 
   272     0093                     	;# 
   273     0094                     	;# 
   274     0098                     	;# 
   275     0099                     	;# 
   276     009E                     	;# 
   277     009F                     	;# 
   278     010C                     	;# 
   279     010D                     	;# 
   280     010E                     	;# 
   281     010F                     	;# 
   282     018C                     	;# 
   283     018D                     	;# 
   284     0000                     	;# 
   285     0001                     	;# 
   286     0002                     	;# 
   287     0003                     	;# 
   288     0004                     	;# 
   289     0005                     	;# 
   290     0006                     	;# 
   291     0007                     	;# 
   292     0008                     	;# 
   293     0009                     	;# 
   294     000A                     	;# 
   295     000B                     	;# 
   296     000C                     	;# 
   297     000D                     	;# 
   298     000E                     	;# 
   299     000E                     	;# 
   300     000F                     	;# 
   301     0010                     	;# 
   302     0011                     	;# 
   303     0012                     	;# 
   304     0013                     	;# 
   305     0014                     	;# 
   306     0015                     	;# 
   307     0015                     	;# 
   308     0016                     	;# 
   309     0017                     	;# 
   310     0018                     	;# 
   311     0019                     	;# 
   312     001A                     	;# 
   313     001B                     	;# 
   314     001B                     	;# 
   315     001C                     	;# 
   316     001D                     	;# 
   317     001E                     	;# 
   318     001F                     	;# 
   319     0081                     	;# 
   320     0085                     	;# 
   321     0086                     	;# 
   322     0087                     	;# 
   323     0088                     	;# 
   324     0089                     	;# 
   325     008C                     	;# 
   326     008D                     	;# 
   327     008E                     	;# 
   328     0091                     	;# 
   329     0092                     	;# 
   330     0093                     	;# 
   331     0094                     	;# 
   332     0098                     	;# 
   333     0099                     	;# 
   334     009E                     	;# 
   335     009F                     	;# 
   336     010C                     	;# 
   337     010D                     	;# 
   338     010E                     	;# 
   339     010F                     	;# 
   340     018C                     	;# 
   341     018D                     	;# 
   342     0000                     	;# 
   343     0001                     	;# 
   344     0002                     	;# 
   345     0003                     	;# 
   346     0004                     	;# 
   347     0005                     	;# 
   348     0006                     	;# 
   349     0007                     	;# 
   350     0008                     	;# 
   351     0009                     	;# 
   352     000A                     	;# 
   353     000B                     	;# 
   354     000C                     	;# 
   355     000D                     	;# 
   356     000E                     	;# 
   357     000E                     	;# 
   358     000F                     	;# 
   359     0010                     	;# 
   360     0011                     	;# 
   361     0012                     	;# 
   362     0013                     	;# 
   363     0014                     	;# 
   364     0015                     	;# 
   365     0015                     	;# 
   366     0016                     	;# 
   367     0017                     	;# 
   368     0018                     	;# 
   369     0019                     	;# 
   370     001A                     	;# 
   371     001B                     	;# 
   372     001B                     	;# 
   373     001C                     	;# 
   374     001D                     	;# 
   375     001E                     	;# 
   376     001F                     	;# 
   377     0081                     	;# 
   378     0085                     	;# 
   379     0086                     	;# 
   380     0087                     	;# 
   381     0088                     	;# 
   382     0089                     	;# 
   383     008C                     	;# 
   384     008D                     	;# 
   385     008E                     	;# 
   386     0091                     	;# 
   387     0092                     	;# 
   388     0093                     	;# 
   389     0094                     	;# 
   390     0098                     	;# 
   391     0099                     	;# 
   392     009E                     	;# 
   393     009F                     	;# 
   394     010C                     	;# 
   395     010D                     	;# 
   396     010E                     	;# 
   397     010F                     	;# 
   398     018C                     	;# 
   399     018D                     	;# 
   400     0000                     	;# 
   401     0001                     	;# 
   402     0002                     	;# 
   403     0003                     	;# 
   404     0004                     	;# 
   405     0005                     	;# 
   406     0006                     	;# 
   407     0007                     	;# 
   408     0008                     	;# 
   409     0009                     	;# 
   410     000A                     	;# 
   411     000B                     	;# 
   412     000C                     	;# 
   413     000D                     	;# 
   414     000E                     	;# 
   415     000E                     	;# 
   416     000F                     	;# 
   417     0010                     	;# 
   418     0011                     	;# 
   419     0012                     	;# 
   420     0013                     	;# 
   421     0014                     	;# 
   422     0015                     	;# 
   423     0015                     	;# 
   424     0016                     	;# 
   425     0017                     	;# 
   426     0018                     	;# 
   427     0019                     	;# 
   428     001A                     	;# 
   429     001B                     	;# 
   430     001B                     	;# 
   431     001C                     	;# 
   432     001D                     	;# 
   433     001E                     	;# 
   434     001F                     	;# 
   435     0081                     	;# 
   436     0085                     	;# 
   437     0086                     	;# 
   438     0087                     	;# 
   439     0088                     	;# 
   440     0089                     	;# 
   441     008C                     	;# 
   442     008D                     	;# 
   443     008E                     	;# 
   444     0091                     	;# 
   445     0092                     	;# 
   446     0093                     	;# 
   447     0094                     	;# 
   448     0098                     	;# 
   449     0099                     	;# 
   450     009E                     	;# 
   451     009F                     	;# 
   452     010C                     	;# 
   453     010D                     	;# 
   454     010E                     	;# 
   455     010F                     	;# 
   456     018C                     	;# 
   457     018D                     	;# 
   458     0000                     	;# 
   459     0001                     	;# 
   460     0002                     	;# 
   461     0003                     	;# 
   462     0004                     	;# 
   463     0005                     	;# 
   464     0006                     	;# 
   465     0007                     	;# 
   466     0008                     	;# 
   467     0009                     	;# 
   468     000A                     	;# 
   469     000B                     	;# 
   470     000C                     	;# 
   471     000D                     	;# 
   472     000E                     	;# 
   473     000E                     	;# 
   474     000F                     	;# 
   475     0010                     	;# 
   476     0011                     	;# 
   477     0012                     	;# 
   478     0013                     	;# 
   479     0014                     	;# 
   480     0015                     	;# 
   481     0015                     	;# 
   482     0016                     	;# 
   483     0017                     	;# 
   484     0018                     	;# 
   485     0019                     	;# 
   486     001A                     	;# 
   487     001B                     	;# 
   488     001B                     	;# 
   489     001C                     	;# 
   490     001D                     	;# 
   491     001E                     	;# 
   492     001F                     	;# 
   493     0081                     	;# 
   494     0085                     	;# 
   495     0086                     	;# 
   496     0087                     	;# 
   497     0088                     	;# 
   498     0089                     	;# 
   499     008C                     	;# 
   500     008D                     	;# 
   501     008E                     	;# 
   502     0091                     	;# 
   503     0092                     	;# 
   504     0093                     	;# 
   505     0094                     	;# 
   506     0098                     	;# 
   507     0099                     	;# 
   508     009E                     	;# 
   509     009F                     	;# 
   510     010C                     	;# 
   511     010D                     	;# 
   512     010E                     	;# 
   513     010F                     	;# 
   514     018C                     	;# 
   515     018D                     	;# 
   516     0000                     	;# 
   517     0001                     	;# 
   518     0002                     	;# 
   519     0003                     	;# 
   520     0004                     	;# 
   521     0005                     	;# 
   522     0006                     	;# 
   523     0007                     	;# 
   524     0008                     	;# 
   525     0009                     	;# 
   526     000A                     	;# 
   527     000B                     	;# 
   528     000C                     	;# 
   529     000D                     	;# 
   530     000E                     	;# 
   531     000E                     	;# 
   532     000F                     	;# 
   533     0010                     	;# 
   534     0011                     	;# 
   535     0012                     	;# 
   536     0013                     	;# 
   537     0014                     	;# 
   538     0015                     	;# 
   539     0015                     	;# 
   540     0016                     	;# 
   541     0017                     	;# 
   542     0018                     	;# 
   543     0019                     	;# 
   544     001A                     	;# 
   545     001B                     	;# 
   546     001B                     	;# 
   547     001C                     	;# 
   548     001D                     	;# 
   549     001E                     	;# 
   550     001F                     	;# 
   551     0081                     	;# 
   552     0085                     	;# 
   553     0086                     	;# 
   554     0087                     	;# 
   555     0088                     	;# 
   556     0089                     	;# 
   557     008C                     	;# 
   558     008D                     	;# 
   559     008E                     	;# 
   560     0091                     	;# 
   561     0092                     	;# 
   562     0093                     	;# 
   563     0094                     	;# 
   564     0098                     	;# 
   565     0099                     	;# 
   566     009E                     	;# 
   567     009F                     	;# 
   568     010C                     	;# 
   569     010D                     	;# 
   570     010E                     	;# 
   571     010F                     	;# 
   572     018C                     	;# 
   573     018D                     	;# 
   574     0000                     	;# 
   575     0001                     	;# 
   576     0002                     	;# 
   577     0003                     	;# 
   578     0004                     	;# 
   579     0005                     	;# 
   580     0006                     	;# 
   581     0007                     	;# 
   582     0008                     	;# 
   583     0009                     	;# 
   584     000A                     	;# 
   585     000B                     	;# 
   586     000C                     	;# 
   587     000D                     	;# 
   588     000E                     	;# 
   589     000E                     	;# 
   590     000F                     	;# 
   591     0010                     	;# 
   592     0011                     	;# 
   593     0012                     	;# 
   594     0013                     	;# 
   595     0014                     	;# 
   596     0015                     	;# 
   597     0015                     	;# 
   598     0016                     	;# 
   599     0017                     	;# 
   600     0018                     	;# 
   601     0019                     	;# 
   602     001A                     	;# 
   603     001B                     	;# 
   604     001B                     	;# 
   605     001C                     	;# 
   606     001D                     	;# 
   607     001E                     	;# 
   608     001F                     	;# 
   609     0081                     	;# 
   610     0085                     	;# 
   611     0086                     	;# 
   612     0087                     	;# 
   613     0088                     	;# 
   614     0089                     	;# 
   615     008C                     	;# 
   616     008D                     	;# 
   617     008E                     	;# 
   618     0091                     	;# 
   619     0092                     	;# 
   620     0093                     	;# 
   621     0094                     	;# 
   622     0098                     	;# 
   623     0099                     	;# 
   624     009E                     	;# 
   625     009F                     	;# 
   626     010C                     	;# 
   627     010D                     	;# 
   628     010E                     	;# 
   629     010F                     	;# 
   630     018C                     	;# 
   631     018D                     	;# 
   632     0000                     	;# 
   633     0001                     	;# 
   634     0002                     	;# 
   635     0003                     	;# 
   636     0004                     	;# 
   637     0005                     	;# 
   638     0006                     	;# 
   639     0007                     	;# 
   640     0008                     	;# 
   641     0009                     	;# 
   642     000A                     	;# 
   643     000B                     	;# 
   644     000C                     	;# 
   645     000D                     	;# 
   646     000E                     	;# 
   647     000E                     	;# 
   648     000F                     	;# 
   649     0010                     	;# 
   650     0011                     	;# 
   651     0012                     	;# 
   652     0013                     	;# 
   653     0014                     	;# 
   654     0015                     	;# 
   655     0015                     	;# 
   656     0016                     	;# 
   657     0017                     	;# 
   658     0018                     	;# 
   659     0019                     	;# 
   660     001A                     	;# 
   661     001B                     	;# 
   662     001B                     	;# 
   663     001C                     	;# 
   664     001D                     	;# 
   665     001E                     	;# 
   666     001F                     	;# 
   667     0081                     	;# 
   668     0085                     	;# 
   669     0086                     	;# 
   670     0087                     	;# 
   671     0088                     	;# 
   672     0089                     	;# 
   673     008C                     	;# 
   674     008D                     	;# 
   675     008E                     	;# 
   676     0091                     	;# 
   677     0092                     	;# 
   678     0093                     	;# 
   679     0094                     	;# 
   680     0098                     	;# 
   681     0099                     	;# 
   682     009E                     	;# 
   683     009F                     	;# 
   684     010C                     	;# 
   685     010D                     	;# 
   686     010E                     	;# 
   687     010F                     	;# 
   688     018C                     	;# 
   689     018D                     	;# 
   690     0000                     	;# 
   691     0001                     	;# 
   692     0002                     	;# 
   693     0003                     	;# 
   694     0004                     	;# 
   695     0005                     	;# 
   696     0006                     	;# 
   697     0007                     	;# 
   698     0008                     	;# 
   699     0009                     	;# 
   700     000A                     	;# 
   701     000B                     	;# 
   702     000C                     	;# 
   703     000D                     	;# 
   704     000E                     	;# 
   705     000E                     	;# 
   706     000F                     	;# 
   707     0010                     	;# 
   708     0011                     	;# 
   709     0012                     	;# 
   710     0013                     	;# 
   711     0014                     	;# 
   712     0015                     	;# 
   713     0015                     	;# 
   714     0016                     	;# 
   715     0017                     	;# 
   716     0018                     	;# 
   717     0019                     	;# 
   718     001A                     	;# 
   719     001B                     	;# 
   720     001B                     	;# 
   721     001C                     	;# 
   722     001D                     	;# 
   723     001E                     	;# 
   724     001F                     	;# 
   725     0081                     	;# 
   726     0085                     	;# 
   727     0086                     	;# 
   728     0087                     	;# 
   729     0088                     	;# 
   730     0089                     	;# 
   731     008C                     	;# 
   732     008D                     	;# 
   733     008E                     	;# 
   734     0091                     	;# 
   735     0092                     	;# 
   736     0093                     	;# 
   737     0094                     	;# 
   738     0098                     	;# 
   739     0099                     	;# 
   740     009E                     	;# 
   741     009F                     	;# 
   742     010C                     	;# 
   743     010D                     	;# 
   744     010E                     	;# 
   745     010F                     	;# 
   746     018C                     	;# 
   747     018D                     	;# 
   748     0000                     	;# 
   749     0001                     	;# 
   750     0002                     	;# 
   751     0003                     	;# 
   752     0004                     	;# 
   753     0005                     	;# 
   754     0006                     	;# 
   755     0007                     	;# 
   756     0008                     	;# 
   757     0009                     	;# 
   758     000A                     	;# 
   759     000B                     	;# 
   760     000C                     	;# 
   761     000D                     	;# 
   762     000E                     	;# 
   763     000E                     	;# 
   764     000F                     	;# 
   765     0010                     	;# 
   766     0011                     	;# 
   767     0012                     	;# 
   768     0013                     	;# 
   769     0014                     	;# 
   770     0015                     	;# 
   771     0015                     	;# 
   772     0016                     	;# 
   773     0017                     	;# 
   774     0018                     	;# 
   775     0019                     	;# 
   776     001A                     	;# 
   777     001B                     	;# 
   778     001B                     	;# 
   779     001C                     	;# 
   780     001D                     	;# 
   781     001E                     	;# 
   782     001F                     	;# 
   783     0081                     	;# 
   784     0085                     	;# 
   785     0086                     	;# 
   786     0087                     	;# 
   787     0088                     	;# 
   788     0089                     	;# 
   789     008C                     	;# 
   790     008D                     	;# 
   791     008E                     	;# 
   792     0091                     	;# 
   793     0092                     	;# 
   794     0093                     	;# 
   795     0094                     	;# 
   796     0098                     	;# 
   797     0099                     	;# 
   798     009E                     	;# 
   799     009F                     	;# 
   800     010C                     	;# 
   801     010D                     	;# 
   802     010E                     	;# 
   803     010F                     	;# 
   804     018C                     	;# 
   805     018D                     	;# 
   806                           
   807                           	psect	idataBANK0
   808     14C9                     __pidataBANK0:
   809                           
   810                           ;initializer for read_digital_keypad@once
   811     14C9  3401               	retlw	1
   812                           
   813                           ;initializer for change_password@display
   814     14CA  3401               	retlw	1
   815                           
   816                           ;initializer for set_time@run
   817     14CB  3401               	retlw	1
   818                           
   819                           ;initializer for _return_time
   820     14CC  3405               	retlw	5
   821                           
   822                           ;initializer for _pos
   823     14CD  34FF               	retlw	255
   824                           
   825                           ;initializer for _blink
   826     14CE  3401               	retlw	1
   827                           
   828                           ;initializer for _first_time
   829     14CF  3401               	retlw	1
   830                           
   831                           ;initializer for _flag
   832     14D0  3401               	retlw	1
   833                           
   834                           	psect	idataBANK1
   835     170F                     __pidataBANK1:
   836                           
   837                           ;initializer for main@F961
   838     170F  341F               	retlw	low (STR_1| (0+32768))
   839     1710  3488               	retlw	high (STR_1| (0+32768))
   840     1711  3422               	retlw	low (STR_2| (0+32768))
   841     1712  3488               	retlw	high (STR_2| (0+32768))
   842     1713  3413               	retlw	low (STR_3| (0+32768))
   843     1714  3488               	retlw	high (STR_3| (0+32768))
   844     1715  3416               	retlw	low (STR_4| (0+32768))
   845     1716  3488               	retlw	high (STR_4| (0+32768))
   846     1717  3419               	retlw	low (STR_5| (0+32768))
   847     1718  3488               	retlw	high (STR_5| (0+32768))
   848     1719  341C               	retlw	low (STR_6| (0+32768))
   849     171A  3488               	retlw	high (STR_6| (0+32768))
   850                           
   851                           ;initializer for login_menu@F990
   852     171B  34F2               	retlw	low (STR_19| (0+32768))
   853     171C  3487               	retlw	high (STR_19| (0+32768))
   854     171D  34DF               	retlw	low (STR_20| (0+32768))
   855     171E  3487               	retlw	high (STR_20| (0+32768))
   856     171F  34A6               	retlw	low (STR_21| (0+32768))
   857     1720  3487               	retlw	high (STR_21| (0+32768))
   858     1721  34E9               	retlw	low (STR_22| (0+32768))
   859     1722  3487               	retlw	high (STR_22| (0+32768))
   860     1723  34BF               	retlw	low (STR_23| (0+32768))
   861     1724  3487               	retlw	high (STR_23| (0+32768))
   862                           
   863                           ;initializer for main@F970
   864     1725  344E               	retlw	78
   865     1726  344F               	retlw	79
   866     1727  3420               	retlw	32
   867     1728  3444               	retlw	68
   868     1729  3441               	retlw	65
   869     172A  3454               	retlw	84
   870     172B  3441               	retlw	65
   871     172C  3400               	retlw	0
   872                           
   873                           ;initializer for main@F957
   874     172D  344F               	retlw	79
   875     172E  344E               	retlw	78
   876     172F  3400               	retlw	0
   877                           
   878                           ;initializer for login@attempt
   879     1730  3403               	retlw	3
   880     1731  3400               	retlw	0
   881                           
   882                           ;initializer for _c_log
   883     1732  3420               	retlw	32
   884     1733  3420               	retlw	32
   885     1734  3420               	retlw	32
   886     1735  3420               	retlw	32
   887     1736  3420               	retlw	32
   888     1737  3420               	retlw	32
   889     1738  3420               	retlw	32
   890     1739  3420               	retlw	32
   891     173A  3420               	retlw	32
   892     173B  3420               	retlw	32
   893     173C  3400               	retlw	0
   894     0019                     _TXREG	set	25
   895     001A                     _RCREG	set	26
   896     0006                     _PORTB	set	6
   897     0013                     _SSPBUF	set	19
   898     001E                     _ADRESH	set	30
   899     0008                     _PORTD	set	8
   900     0064                     _TXIF	set	100
   901     0065                     _RCIF	set	101
   902     00C4                     _CREN	set	196
   903     00C7                     _SPEN	set	199
   904     0091                     _T2CKPS1	set	145
   905     0090                     _T2CKPS0	set	144
   906     0061                     _TMR2IF	set	97
   907     0092                     _TMR2ON	set	146
   908     005E                     _PEIE	set	94
   909     005F                     _GIE	set	95
   910     00A5                     _SSPEN	set	165
   911     00A3                     _SSPM3	set	163
   912     00FA                     _nDONE	set	250
   913     00FA                     _GO	set	250
   914     00F8                     _ADON	set	248
   915     0049                     _RE1	set	73
   916     004A                     _RE2	set	74
   917     0099                     _SPBRG	set	153
   918     0092                     _PR2	set	146
   919     0086                     _TRISB	set	134
   920     0091                     _SSPCON2	set	145
   921     0093                     _SSPADD	set	147
   922     009E                     _ADRESL	set	158
   923     0088                     _TRISD	set	136
   924     0461                     _TMR2IE	set	1121
   925     048E                     _ACKSTAT	set	1166
   926     048C                     _ACKEN	set	1164
   927     048D                     _ACKDT	set	1165
   928     048B                     _RCEN	set	1163
   929     048A                     _PEN	set	1162
   930     0488                     _SEN	set	1160
   931     04A2                     _R_nW	set	1186
   932     04FF                     _ADFM	set	1279
   933     0449                     _TRISE1	set	1097
   934     044A                     _TRISE2	set	1098
   935                           
   936                           	psect	strings
   937     1000                     __pstrings:
   938     1000                     stringtab:
   939     1000                     __stringtab:
   940                           
   941                           ;	String table - string pointers are 2 bytes each
   942     1000  1BFF               	btfsc	btemp+1,7
   943     1001  280A               	ljmp	stringcode
   944     1002  1383               	bcf	3,7
   945     1003  187F               	btfsc	btemp+1,0
   946     1004  1783               	bsf	3,7
   947     1005  0800               	movf	0,w
   948     1006  0A84               	incf	4,f
   949     1007  1903               	skipnz
   950     1008  0AFF               	incf	btemp+1,f
   951     1009  0008               	return
   952     100A                     stringcode:
   953     100A  087F               	movf	btemp+1,w
   954     100B  397F               	andlw	127
   955     100C  008A               	movwf	10
   956     100D  0804               	movf	4,w
   957     100E  0A84               	incf	4,f
   958     100F  1903               	skipnz
   959     1010  0AFF               	incf	btemp+1,f
   960     1011  0082               	movwf	2
   961     1012                     __stringbase:
   962     1012                     __end_of__stringtab:
   963                           
   964                           	psect	stringtext
   965     0700                     __pstringtext:
   966     0700                     STR_27:
   967     0700  3420               	retlw	32	;' '
   968     0701  3420               	retlw	32	;' '
   969     0702  3454               	retlw	84	;'T'
   970     0703  3449               	retlw	73	;'I'
   971     0704  344D               	retlw	77	;'M'
   972     0705  3445               	retlw	69	;'E'
   973     0706  3420               	retlw	32	;' '
   974     0707  3420               	retlw	32	;' '
   975     0708  3420               	retlw	32	;' '
   976     0709  3420               	retlw	32	;' '
   977     070A  3420               	retlw	32	;' '
   978     070B  3420               	retlw	32	;' '
   979     070C  3420               	retlw	32	;' '
   980     070D  3445               	retlw	69	;'E'
   981     070E  3456               	retlw	86	;'V'
   982     070F  3420               	retlw	32	;' '
   983     0710  3420               	retlw	32	;' '
   984     0711  3453               	retlw	83	;'S'
   985     0712  3450               	retlw	80	;'P'
   986     0713  340A               	retlw	10
   987     0714  3400               	retlw	0
   988     0715                     STR_32:
   989     0715  3450               	retlw	80	;'P'
   990     0716  3441               	retlw	65	;'A'
   991     0717  3453               	retlw	83	;'S'
   992     0718  3453               	retlw	83	;'S'
   993     0719  3457               	retlw	87	;'W'
   994     071A  344F               	retlw	79	;'O'
   995     071B  3452               	retlw	82	;'R'
   996     071C  3444               	retlw	68	;'D'
   997     071D  3420               	retlw	32	;' '
   998     071E  3443               	retlw	67	;'C'
   999     071F  3448               	retlw	72	;'H'
  1000     0720  3441               	retlw	65	;'A'
  1001     0721  344E               	retlw	78	;'N'
  1002     0722  3447               	retlw	71	;'G'
  1003     0723  3445               	retlw	69	;'E'
  1004     0724  3444               	retlw	68	;'D'
  1005     0725  3400               	retlw	0
  1006     0726                     STR_29:
  1007     0726  3453               	retlw	83	;'S'
  1008     0727  3445               	retlw	69	;'E'
  1009     0728  3454               	retlw	84	;'T'
  1010     0729  3420               	retlw	32	;' '
  1011     072A  3454               	retlw	84	;'T'
  1012     072B  3449               	retlw	73	;'I'
  1013     072C  344D               	retlw	77	;'M'
  1014     072D  3445               	retlw	69	;'E'
  1015     072E  342D               	retlw	45	;'-'
  1016     072F  343E               	retlw	62	;'>'
  1017     0730  3452               	retlw	82	;'R'
  1018     0731  3455               	retlw	85	;'U'
  1019     0732  344E               	retlw	78	;'N'
  1020     0733  345F               	retlw	95	;'_'
  1021     0734  344D               	retlw	77	;'M'
  1022     0735  3444               	retlw	68	;'D'
  1023     0736  3400               	retlw	0
  1024     0737                     STR_12:
  1025     0737  3420               	retlw	32	;' '
  1026     0738  3420               	retlw	32	;' '
  1027     0739  3454               	retlw	84	;'T'
  1028     073A  3449               	retlw	73	;'I'
  1029     073B  344D               	retlw	77	;'M'
  1030     073C  3445               	retlw	69	;'E'
  1031     073D  3420               	retlw	32	;' '
  1032     073E  3420               	retlw	32	;' '
  1033     073F  3420               	retlw	32	;' '
  1034     0740  3420               	retlw	32	;' '
  1035     0741  3420               	retlw	32	;' '
  1036     0742  3445               	retlw	69	;'E'
  1037     0743  3456               	retlw	86	;'V'
  1038     0744  3420               	retlw	32	;' '
  1039     0745  3453               	retlw	83	;'S'
  1040     0746  3450               	retlw	80	;'P'
  1041     0747  3400               	retlw	0
  1042     0748                     STR_15:
  1043     0748  3457               	retlw	87	;'W'
  1044     0749  3461               	retlw	97	;'a'
  1045     074A  3469               	retlw	105	;'i'
  1046     074B  3474               	retlw	116	;'t'
  1047     074C  3420               	retlw	32	;' '
  1048     074D  3466               	retlw	102	;'f'
  1049     074E  346F               	retlw	111	;'o'
  1050     074F  3472               	retlw	114	;'r'
  1051     0750  342E               	retlw	46	;'.'
  1052     0751  342E               	retlw	46	;'.'
  1053     0752  342E               	retlw	46	;'.'
  1054     0753  3436               	retlw	54	;'6'
  1055     0754  3430               	retlw	48	;'0'
  1056     0755  3473               	retlw	115	;'s'
  1057     0756  3465               	retlw	101	;'e'
  1058     0757  3463               	retlw	99	;'c'
  1059     0758  3400               	retlw	0
  1060     0759                     STR_17:
  1061     0759  3441               	retlw	65	;'A'
  1062     075A  3474               	retlw	116	;'t'
  1063     075B  3474               	retlw	116	;'t'
  1064     075C  3465               	retlw	101	;'e'
  1065     075D  346D               	retlw	109	;'m'
  1066     075E  3470               	retlw	112	;'p'
  1067     075F  3474               	retlw	116	;'t'
  1068     0760  3420               	retlw	32	;' '
  1069     0761  3452               	retlw	82	;'R'
  1070     0762  3465               	retlw	101	;'e'
  1071     0763  346D               	retlw	109	;'m'
  1072     0764  3461               	retlw	97	;'a'
  1073     0765  3469               	retlw	105	;'i'
  1074     0766  346E               	retlw	110	;'n'
  1075     0767  3473               	retlw	115	;'s'
  1076     0768  3400               	retlw	0
  1077     0769                     STR_9:
  1078     0769  3420               	retlw	32	;' '
  1079     076A  3445               	retlw	69	;'E'
  1080     076B  344E               	retlw	78	;'N'
  1081     076C  3454               	retlw	84	;'T'
  1082     076D  3445               	retlw	69	;'E'
  1083     076E  3452               	retlw	82	;'R'
  1084     076F  3420               	retlw	32	;' '
  1085     0770  3450               	retlw	80	;'P'
  1086     0771  3441               	retlw	65	;'A'
  1087     0772  3453               	retlw	83	;'S'
  1088     0773  3453               	retlw	83	;'S'
  1089     0774  3457               	retlw	87	;'W'
  1090     0775  344F               	retlw	79	;'O'
  1091     0776  3452               	retlw	82	;'R'
  1092     0777  3444               	retlw	68	;'D'
  1093     0778  3400               	retlw	0
  1094     0779                     STR_31:
  1095     0779  3420               	retlw	32	;' '
  1096     077A  3420               	retlw	32	;' '
  1097     077B  344E               	retlw	78	;'N'
  1098     077C  3445               	retlw	69	;'E'
  1099     077D  3457               	retlw	87	;'W'
  1100     077E  3420               	retlw	32	;' '
  1101     077F  3450               	retlw	80	;'P'
  1102     0780  3441               	retlw	65	;'A'
  1103     0781  3453               	retlw	83	;'S'
  1104     0782  3453               	retlw	83	;'S'
  1105     0783  3457               	retlw	87	;'W'
  1106     0784  344F               	retlw	79	;'O'
  1107     0785  3452               	retlw	82	;'R'
  1108     0786  3444               	retlw	68	;'D'
  1109     0787  3400               	retlw	0
  1110     0788                     STR_14:
  1111     0788  3459               	retlw	89	;'Y'
  1112     0789  346F               	retlw	111	;'o'
  1113     078A  3475               	retlw	117	;'u'
  1114     078B  3420               	retlw	32	;' '
  1115     078C  3461               	retlw	97	;'a'
  1116     078D  3472               	retlw	114	;'r'
  1117     078E  3465               	retlw	101	;'e'
  1118     078F  3420               	retlw	32	;' '
  1119     0790  346C               	retlw	108	;'l'
  1120     0791  346F               	retlw	111	;'o'
  1121     0792  3463               	retlw	99	;'c'
  1122     0793  346B               	retlw	107	;'k'
  1123     0794  3465               	retlw	101	;'e'
  1124     0795  3464               	retlw	100	;'d'
  1125     0796  3400               	retlw	0
  1126     0797                     STR_16:
  1127     0797  3457               	retlw	87	;'W'
  1128     0798  3472               	retlw	114	;'r'
  1129     0799  346F               	retlw	111	;'o'
  1130     079A  346E               	retlw	110	;'n'
  1131     079B  3467               	retlw	103	;'g'
  1132     079C  3420               	retlw	32	;' '
  1133     079D  3450               	retlw	80	;'P'
  1134     079E  3461               	retlw	97	;'a'
  1135     079F  3473               	retlw	115	;'s'
  1136     07A0  3473               	retlw	115	;'s'
  1137     07A1  3477               	retlw	119	;'w'
  1138     07A2  346F               	retlw	111	;'o'
  1139     07A3  3472               	retlw	114	;'r'
  1140     07A4  3464               	retlw	100	;'d'
  1141     07A5  3400               	retlw	0
  1142     07A6                     STR_21:
  1143     07A6  3444               	retlw	68	;'D'
  1144     07A7  346F               	retlw	111	;'o'
  1145     07A8  3477               	retlw	119	;'w'
  1146     07A9  346E               	retlw	110	;'n'
  1147     07AA  346C               	retlw	108	;'l'
  1148     07AB  346F               	retlw	111	;'o'
  1149     07AC  3461               	retlw	97	;'a'
  1150     07AD  3464               	retlw	100	;'d'
  1151     07AE  3420               	retlw	32	;' '
  1152     07AF  346C               	retlw	108	;'l'
  1153     07B0  346F               	retlw	111	;'o'
  1154     07B1  3467               	retlw	103	;'g'
  1155     07B2  3400               	retlw	0
  1156     07B3                     STR_26:
  1157     07B3  344C               	retlw	76	;'L'
  1158     07B4  344F               	retlw	79	;'O'
  1159     07B5  3447               	retlw	71	;'G'
  1160     07B6  3420               	retlw	32	;' '
  1161     07B7  3443               	retlw	67	;'C'
  1162     07B8  344C               	retlw	76	;'L'
  1163     07B9  3445               	retlw	69	;'E'
  1164     07BA  3441               	retlw	65	;'A'
  1165     07BB  3452               	retlw	82	;'R'
  1166     07BC  3445               	retlw	69	;'E'
  1167     07BD  3444               	retlw	68	;'D'
  1168     07BE  3400               	retlw	0
  1169     07BF                     STR_23:
  1170     07BF  3443               	retlw	67	;'C'
  1171     07C0  3468               	retlw	104	;'h'
  1172     07C1  3461               	retlw	97	;'a'
  1173     07C2  346E               	retlw	110	;'n'
  1174     07C3  3467               	retlw	103	;'g'
  1175     07C4  3465               	retlw	101	;'e'
  1176     07C5  3420               	retlw	32	;' '
  1177     07C6  3470               	retlw	112	;'p'
  1178     07C7  3477               	retlw	119	;'w'
  1179     07C8  3464               	retlw	100	;'d'
  1180     07C9  3400               	retlw	0
  1181     07CA                     STR_10:
  1182     07CA  3453               	retlw	83	;'S'
  1183     07CB  3445               	retlw	69	;'E'
  1184     07CC  344E               	retlw	78	;'N'
  1185     07CD  3444               	retlw	68	;'D'
  1186     07CE  3449               	retlw	73	;'I'
  1187     07CF  344E               	retlw	78	;'N'
  1188     07D0  3447               	retlw	71	;'G'
  1189     07D1  342E               	retlw	46	;'.'
  1190     07D2  342E               	retlw	46	;'.'
  1191     07D3  342E               	retlw	46	;'.'
  1192     07D4  3400               	retlw	0
  1193     07D5                     STR_30:
  1194     07D5  3445               	retlw	69	;'E'
  1195     07D6  3444               	retlw	68	;'D'
  1196     07D7  3449               	retlw	73	;'I'
  1197     07D8  3454               	retlw	84	;'T'
  1198     07D9  3420               	retlw	32	;' '
  1199     07DA  344D               	retlw	77	;'M'
  1200     07DB  344F               	retlw	79	;'O'
  1201     07DC  3444               	retlw	68	;'D'
  1202     07DD  3445               	retlw	69	;'E'
  1203     07DE  3400               	retlw	0
  1204     07DF                     STR_20:
  1205     07DF  3443               	retlw	67	;'C'
  1206     07E0  346C               	retlw	108	;'l'
  1207     07E1  3465               	retlw	101	;'e'
  1208     07E2  3461               	retlw	97	;'a'
  1209     07E3  3472               	retlw	114	;'r'
  1210     07E4  3420               	retlw	32	;' '
  1211     07E5  346C               	retlw	108	;'l'
  1212     07E6  346F               	retlw	111	;'o'
  1213     07E7  3467               	retlw	103	;'g'
  1214     07E8  3400               	retlw	0
  1215     07E9                     STR_22:
  1216     07E9  3453               	retlw	83	;'S'
  1217     07EA  3465               	retlw	101	;'e'
  1218     07EB  3474               	retlw	116	;'t'
  1219     07EC  3420               	retlw	32	;' '
  1220     07ED  3474               	retlw	116	;'t'
  1221     07EE  3469               	retlw	105	;'i'
  1222     07EF  346D               	retlw	109	;'m'
  1223     07F0  3465               	retlw	101	;'e'
  1224     07F1  3400               	retlw	0
  1225     07F2                     STR_19:
  1226     07F2  3456               	retlw	86	;'V'
  1227     07F3  3469               	retlw	105	;'i'
  1228     07F4  3465               	retlw	101	;'e'
  1229     07F5  3477               	retlw	119	;'w'
  1230     07F6  3420               	retlw	32	;' '
  1231     07F7  346C               	retlw	108	;'l'
  1232     07F8  346F               	retlw	111	;'o'
  1233     07F9  3467               	retlw	103	;'g'
  1234     07FA  3400               	retlw	0
  1235     07FB                     STR_24:
  1236     07FB  344E               	retlw	78	;'N'
  1237     07FC  344F               	retlw	79	;'O'
  1238     07FD  3420               	retlw	32	;' '
  1239     07FE  3444               	retlw	68	;'D'
  1240     07FF  3441               	retlw	65	;'A'
  1241     0800  3454               	retlw	84	;'T'
  1242     0801  3441               	retlw	65	;'A'
  1243     0802  3400               	retlw	0
  1244     0803                     STR_7:
  1245     0803  3431               	retlw	49	;'1'
  1246     0804  3430               	retlw	48	;'0'
  1247     0805  3431               	retlw	49	;'1'
  1248     0806  3430               	retlw	48	;'0'
  1249     0807  3400               	retlw	0
  1250     0808                     STR_11:
  1251     0808  3453               	retlw	83	;'S'
  1252     0809  3445               	retlw	69	;'E'
  1253     080A  344E               	retlw	78	;'N'
  1254     080B  3454               	retlw	84	;'T'
  1255     080C  3400               	retlw	0
  1256     080D                     STR_13:
  1257     080D  344F               	retlw	79	;'O'
  1258     080E  344E               	retlw	78	;'N'
  1259     080F  3400               	retlw	0
  1260     0810                     STR_8:
  1261     0810  3443               	retlw	67	;'C'
  1262     0811  3420               	retlw	32	;' '
  1263     0812  3400               	retlw	0
  1264     0813                     STR_3:
  1265     0813  3447               	retlw	71	;'G'
  1266     0814  3431               	retlw	49	;'1'
  1267     0815  3400               	retlw	0
  1268     0816                     STR_4:
  1269     0816  3447               	retlw	71	;'G'
  1270     0817  3432               	retlw	50	;'2'
  1271     0818  3400               	retlw	0
  1272     0819                     STR_5:
  1273     0819  3447               	retlw	71	;'G'
  1274     081A  3433               	retlw	51	;'3'
  1275     081B  3400               	retlw	0
  1276     081C                     STR_6:
  1277     081C  3447               	retlw	71	;'G'
  1278     081D  3434               	retlw	52	;'4'
  1279     081E  3400               	retlw	0
  1280     081F                     STR_1:
  1281     081F  3447               	retlw	71	;'G'
  1282     0820  344E               	retlw	78	;'N'
  1283     0821  3400               	retlw	0
  1284     0822                     STR_2:
  1285     0822  3447               	retlw	71	;'G'
  1286     0823  3452               	retlw	82	;'R'
  1287     0824  3400               	retlw	0
  1288     0713                     
  1289                           	psect	cinit
  1290     000F                     start_initialization:	
  1291                           ; #config settings
  1292                           
  1293     000F                     __initialization:
  1294                           
  1295                           ; Initialize objects allocated to BANK1
  1296     000F  1383               	bcf	3,7	;select IRP bank0
  1297     0010  30CE               	movlw	low (__pdataBANK1+46)
  1298     0011  00FD               	movwf	btemp+-1
  1299     0012  3017               	movlw	high __pidataBANK1
  1300     0013  00FE               	movwf	btemp
  1301     0014  300F               	movlw	low __pidataBANK1
  1302     0015  00FF               	movwf	btemp+1
  1303     0016  30A0               	movlw	low __pdataBANK1
  1304     0017  0084               	movwf	4
  1305     0018  160A  118A  2560  120A  118A  	fcall	init_ram0
  1306                           
  1307                           ; Initialize objects allocated to BANK0
  1308     001D  3052               	movlw	low (__pdataBANK0+8)
  1309     001E  00FD               	movwf	btemp+-1
  1310     001F  3014               	movlw	high __pidataBANK0
  1311     0020  00FE               	movwf	btemp
  1312     0021  30C9               	movlw	low __pidataBANK0
  1313     0022  00FF               	movwf	btemp+1
  1314     0023  304A               	movlw	low __pdataBANK0
  1315     0024  0084               	movwf	4
  1316     0025  160A  118A  2560  120A  118A  	fcall	init_ram0
  1317                           
  1318                           ; Clear objects allocated to BANK3
  1319     002A  1783               	bsf	3,7	;select IRP bank2
  1320     002B  30B1               	movlw	low __pbssBANK3
  1321     002C  0084               	movwf	4
  1322     002D  30C1               	movlw	low (__pbssBANK3+16)
  1323     002E  160A  118A  24C1  120A  118A  	fcall	clear_ram0
  1324                           
  1325                           ; Clear objects allocated to BANK1
  1326     0033  1383               	bcf	3,7	;select IRP bank0
  1327     0034  30CE               	movlw	low __pbssBANK1
  1328     0035  0084               	movwf	4
  1329     0036  30E8               	movlw	low (__pbssBANK1+26)
  1330     0037  160A  118A  24C1  120A  118A  	fcall	clear_ram0
  1331                           
  1332                           ; Clear objects allocated to BANK0
  1333     003C  3039               	movlw	low __pbssBANK0
  1334     003D  0084               	movwf	4
  1335     003E  304A               	movlw	low (__pbssBANK0+17)
  1336     003F  160A  118A  24C1  120A  118A  	fcall	clear_ram0
  1337                           
  1338                           ; Clear objects allocated to COMMON
  1339     0044  01FA               	clrf	__pbssCOMMON& (0+127)
  1340     0045  01FB               	clrf	(__pbssCOMMON+1)& (0+127)
  1341     0046                     end_of_initialization:	
  1342                           ;End of C runtime variable initialization code
  1343                           
  1344     0046                     __end_of__initialization:
  1345     0046  0183               	clrf	3
  1346     0047  120A  118A  284A   	ljmp	_main	;jump to C main() function
  1347                           
  1348                           	psect	bssCOMMON
  1349     007A                     __pbssCOMMON:
  1350     007A                     _read_pos:
  1351     007A                     	ds	1
  1352     007B                     _d_pos:
  1353     007B                     	ds	1
  1354                           
  1355                           	psect	bssBANK0
  1356     0039                     __pbssBANK0:
  1357     0039                     _clock_reg:
  1358     0039                     	ds	3
  1359     003C                     change_password@i:
  1360     003C                     	ds	1
  1361     003D                     set_time@b_pos:
  1362     003D                     	ds	1
  1363     003E                     login_menu@menu_pos:
  1364     003E                     	ds	1
  1365     003F                     login@i:
  1366     003F                     	ds	1
  1367     0040                     _clear_flag:
  1368     0040                     	ds	1
  1369     0041                     _c_pos:
  1370     0041                     	ds	1
  1371     0042                     _sec:
  1372     0042                     	ds	1
  1373     0043                     _time:
  1374     0043                     	ds	7
  1375                           
  1376                           	psect	dataBANK0
  1377     004A                     __pdataBANK0:
  1378     004A                     read_digital_keypad@once:
  1379     004A                     	ds	1
  1380     004B                     change_password@display:
  1381     004B                     	ds	1
  1382     004C                     set_time@run:
  1383     004C                     	ds	1
  1384     004D                     _return_time:
  1385     004D                     	ds	1
  1386     004E                     _pos:
  1387     004E                     	ds	1
  1388     004F                     _blink:
  1389     004F                     	ds	1
  1390     0050                     _first_time:
  1391     0050                     	ds	1
  1392     0051                     _flag:
  1393     0051                     	ds	1
  1394                           
  1395                           	psect	bssBANK1
  1396     00CE                     __pbssBANK1:
  1397     00CE                     isr@count:
  1398     00CE                     	ds	4
  1399     00D2                     _data:
  1400     00D2                     	ds	11
  1401     00DD                     _log:
  1402     00DD                     	ds	11
  1403                           
  1404                           	psect	dataBANK1
  1405     00A0                     __pdataBANK1:
  1406     00A0                     main@F961:
  1407     00A0                     	ds	12
  1408     00AC                     login_menu@F990:
  1409     00AC                     	ds	10
  1410     00B6                     main@F970:
  1411     00B6                     	ds	8
  1412     00BE                     main@F957:
  1413     00BE                     	ds	3
  1414     00C1                     login@attempt:
  1415     00C1                     	ds	2
  1416     00C3                     _c_log:
  1417     00C3                     	ds	11
  1418                           
  1419                           	psect	bssBANK3
  1420     01B1                     __pbssBANK3:
  1421     01B1                     _d_data:
  1422     01B1                     	ds	16
  1423                           
  1424                           	psect	inittext
  1425     155C                     init_fetch0:	
  1426                           ;	Called with low address in FSR and high address in W
  1427                           
  1428     155C  087E               	movf	btemp,w
  1429     155D  008A               	movwf	10
  1430     155E  087F               	movf	btemp+1,w
  1431     155F  0082               	movwf	2
  1432     1560                     init_ram0:	
  1433                           ;Called with:
  1434                           ;	high address of idata address in btemp 
  1435                           ;	low address of idata address in btemp+1 
  1436                           ;	low address of data in FSR
  1437                           ;	high address + 1 of data in btemp-1
  1438                           
  1439     1560  160A  118A  255C  160A  118A  	fcall	init_fetch0
  1440     1565  0080               	movwf	0
  1441     1566  0A84               	incf	4,f
  1442     1567  0804               	movf	4,w
  1443     1568  067D               	xorwf	btemp+-1,w
  1444     1569  1903               	btfsc	3,2
  1445     156A  3400               	retlw	0
  1446     156B  0AFF               	incf	btemp+1,f
  1447     156C  1903               	btfsc	3,2
  1448     156D  0AFE               	incf	btemp,f
  1449     156E  2D60               	goto	init_ram0
  1450                           
  1451                           	psect	clrtext
  1452     14C1                     clear_ram0:	
  1453                           ;	Called with FSR containing the base address, and
  1454                           ;	W with the last address+1
  1455                           
  1456     14C1  0064               	clrwdt	;clear the watchdog before getting into this loop
  1457     14C2                     clrloop0:
  1458     14C2  0180               	clrf	0	;clear RAM location pointed to by FSR
  1459     14C3  0A84               	incf	4,f	;increment pointer
  1460     14C4  0604               	xorwf	4,w	;XOR with final address
  1461     14C5  1903               	btfsc	3,2	;have we reached the end yet?
  1462     14C6  3400               	retlw	0	;all done for this memory range, return
  1463     14C7  0604               	xorwf	4,w	;XOR again to restore value
  1464     14C8  2CC2               	goto	clrloop0	;do the next byte
  1465                           
  1466                           	psect	cstackBANK3
  1467     0190                     __pcstackBANK3:
  1468     0190                     main@ch:
  1469                           
  1470                           ; 8 bytes @ 0x0
  1471     0190                     	ds	8
  1472     0198                     main@gear:
  1473                           
  1474                           ; 12 bytes @ 0x8
  1475     0198                     	ds	12
  1476     01A4                     main@j:
  1477                           
  1478                           ; 2 bytes @ 0x14
  1479     01A4                     	ds	2
  1480     01A6                     main@var:
  1481                           
  1482                           ; 1 bytes @ 0x16
  1483     01A6                     	ds	1
  1484     01A7                     main@wait:
  1485                           
  1486                           ; 1 bytes @ 0x17
  1487     01A7                     	ds	1
  1488     01A8                     main@gr:
  1489                           
  1490                           ; 1 bytes @ 0x18
  1491     01A8                     	ds	1
  1492     01A9                     main@d_flag:
  1493                           
  1494                           ; 1 bytes @ 0x19
  1495     01A9                     	ds	1
  1496     01AA                     main@event:
  1497                           
  1498                           ; 3 bytes @ 0x1A
  1499     01AA                     	ds	3
  1500     01AD                     main@reset_flag:
  1501                           
  1502                           ; 1 bytes @ 0x1D
  1503     01AD                     	ds	1
  1504     01AE                     main@speed:
  1505                           
  1506                           ; 1 bytes @ 0x1E
  1507     01AE                     	ds	1
  1508     01AF                     main@control_flag:
  1509                           
  1510                           ; 1 bytes @ 0x1F
  1511     01AF                     	ds	1
  1512     01B0                     main@key:
  1513                           
  1514                           ; 1 bytes @ 0x20
  1515     01B0                     	ds	1
  1516                           
  1517                           	psect	cstackCOMMON
  1518     0070                     __pcstackCOMMON:
  1519     0070                     ?_read_ds1307:
  1520     0070                     ?_i2c_start:	
  1521                           ; 1 bytes @ 0x0
  1522                           
  1523     0070                     ?_i2c_rep_start:	
  1524                           ; 1 bytes @ 0x0
  1525                           
  1526     0070                     ?_i2c_read:	
  1527                           ; 1 bytes @ 0x0
  1528                           
  1529     0070                     ?_i2c_stop:	
  1530                           ; 1 bytes @ 0x0
  1531                           
  1532     0070                     ?_init_digital_keypad:	
  1533                           ; 1 bytes @ 0x0
  1534                           
  1535     0070                     ?_init_timer2:	
  1536                           ; 1 bytes @ 0x0
  1537                           
  1538     0070                     ?_read_digital_keypad:	
  1539                           ; 1 bytes @ 0x0
  1540                           
  1541     0070                     ?_clear_screen:	
  1542                           ; 1 bytes @ 0x0
  1543                           
  1544     0070                     ?_view_log:	
  1545                           ; 1 bytes @ 0x0
  1546                           
  1547     0070                     ?_clear_log:	
  1548                           ; 1 bytes @ 0x0
  1549                           
  1550     0070                     ?_download_log:	
  1551                           ; 1 bytes @ 0x0
  1552                           
  1553     0070                     ?_set_time:	
  1554                           ; 1 bytes @ 0x0
  1555                           
  1556     0070                     ?_change_password:	
  1557                           ; 1 bytes @ 0x0
  1558                           
  1559     0070                     ?_eeprom_at24c04_random_read:	
  1560                           ; 1 bytes @ 0x0
  1561                           
  1562     0070                     ?_init_display_controller:	
  1563                           ; 1 bytes @ 0x0
  1564                           
  1565     0070                     ?_init_clcd:	
  1566                           ; 1 bytes @ 0x0
  1567                           
  1568     0070                     ?_init_adc:	
  1569                           ; 1 bytes @ 0x0
  1570                           
  1571     0070                     ?_init_ds1307:	
  1572                           ; 1 bytes @ 0x0
  1573                           
  1574     0070                     ?_i2c_wait_for_idle:	
  1575                           ; 1 bytes @ 0x0
  1576                           
  1577     0070                     ?_init_config:	
  1578                           ; 1 bytes @ 0x0
  1579                           
  1580     0070                     ?_main:	
  1581                           ; 1 bytes @ 0x0
  1582                           
  1583     0070                     ?_display_time:	
  1584                           ; 1 bytes @ 0x0
  1585                           
  1586     0070                     ?_get_time:	
  1587                           ; 1 bytes @ 0x0
  1588                           
  1589     0070                     ?_log_event:	
  1590                           ; 1 bytes @ 0x0
  1591                           
  1592     0070                     ?_read_event:	
  1593                           ; 1 bytes @ 0x0
  1594                           
  1595     0070                     ?_isr:	
  1596                           ; 1 bytes @ 0x0
  1597                           
  1598     0070                     ??_isr:	
  1599                           ; 1 bytes @ 0x0
  1600                           
  1601     0070                     ?_putchar:	
  1602                           ; 1 bytes @ 0x0
  1603                           
  1604     0070                     ?_i2c_write:	
  1605                           ; 1 bytes @ 0x0
  1606                           
  1607                           
  1608                           ; 2 bytes @ 0x0
  1609     0070                     	ds	2
  1610     0072                     ??_i2c_start:
  1611     0072                     ??_i2c_write:	
  1612                           ; 1 bytes @ 0x2
  1613                           
  1614     0072                     ??_i2c_rep_start:	
  1615                           ; 1 bytes @ 0x2
  1616                           
  1617     0072                     ??_i2c_read:	
  1618                           ; 1 bytes @ 0x2
  1619                           
  1620     0072                     ??_i2c_stop:	
  1621                           ; 1 bytes @ 0x2
  1622                           
  1623     0072                     ??_init_digital_keypad:	
  1624                           ; 1 bytes @ 0x2
  1625                           
  1626     0072                     ??_init_timer2:	
  1627                           ; 1 bytes @ 0x2
  1628                           
  1629     0072                     ??_read_digital_keypad:	
  1630                           ; 1 bytes @ 0x2
  1631                           
  1632     0072                     ?_strcpy:	
  1633                           ; 1 bytes @ 0x2
  1634                           
  1635     0072                     ?_strncpy:	
  1636                           ; 1 bytes @ 0x2
  1637                           
  1638     0072                     ?_clcd_write:	
  1639                           ; 1 bytes @ 0x2
  1640                           
  1641     0072                     ??_init_adc:	
  1642                           ; 1 bytes @ 0x2
  1643                           
  1644     0072                     ??_i2c_wait_for_idle:	
  1645                           ; 1 bytes @ 0x2
  1646                           
  1647     0072                     ??_putchar:	
  1648                           ; 1 bytes @ 0x2
  1649                           
  1650     0072                     ?___bmul:	
  1651                           ; 1 bytes @ 0x2
  1652                           
  1653     0072                     ?_strcmp:	
  1654                           ; 1 bytes @ 0x2
  1655                           
  1656     0072                     ?_strncmp:	
  1657                           ; 2 bytes @ 0x2
  1658                           
  1659     0072                     ?_read_adc:	
  1660                           ; 2 bytes @ 0x2
  1661                           
  1662     0072                     ?___awdiv:	
  1663                           ; 2 bytes @ 0x2
  1664                           
  1665     0072                     ?___awmod:	
  1666                           ; 2 bytes @ 0x2
  1667                           
  1668     0072                     ?___lldiv:	
  1669                           ; 2 bytes @ 0x2
  1670                           
  1671     0072                     clcd_write@mode:	
  1672                           ; 4 bytes @ 0x2
  1673                           
  1674     0072                     i2c_read@ack:	
  1675                           ; 1 bytes @ 0x2
  1676                           
  1677     0072                     i2c_write@data:	
  1678                           ; 1 bytes @ 0x2
  1679                           
  1680     0072                     putchar@data:	
  1681                           ; 1 bytes @ 0x2
  1682                           
  1683     0072                     ___bmul@multiplicand:	
  1684                           ; 1 bytes @ 0x2
  1685                           
  1686     0072                     strncmp@s2:	
  1687                           ; 1 bytes @ 0x2
  1688                           
  1689     0072                     ___awdiv@divisor:	
  1690                           ; 1 bytes @ 0x2
  1691                           
  1692     0072                     ___awmod@divisor:	
  1693                           ; 2 bytes @ 0x2
  1694                           
  1695     0072                     strcmp@s2:	
  1696                           ; 2 bytes @ 0x2
  1697                           
  1698     0072                     strcpy@from:	
  1699                           ; 2 bytes @ 0x2
  1700                           
  1701     0072                     strncpy@from:	
  1702                           ; 2 bytes @ 0x2
  1703                           
  1704     0072                     ___lldiv@divisor:	
  1705                           ; 2 bytes @ 0x2
  1706                           
  1707                           
  1708                           ; 4 bytes @ 0x2
  1709     0072                     	ds	1
  1710     0073                     ?_write_ds1307:
  1711     0073                     ?_puts:	
  1712                           ; 1 bytes @ 0x3
  1713                           
  1714     0073                     ??_clcd_write:	
  1715                           ; 1 bytes @ 0x3
  1716                           
  1717     0073                     ?_eeprom_at24c04_byte_write:	
  1718                           ; 1 bytes @ 0x3
  1719                           
  1720     0073                     ??___bmul:	
  1721                           ; 1 bytes @ 0x3
  1722                           
  1723     0073                     write_ds1307@data:	
  1724                           ; 1 bytes @ 0x3
  1725                           
  1726     0073                     i2c_read@data:	
  1727                           ; 1 bytes @ 0x3
  1728                           
  1729     0073                     read_digital_keypad@mode:	
  1730                           ; 1 bytes @ 0x3
  1731                           
  1732     0073                     eeprom_at24c04_byte_write@data:	
  1733                           ; 1 bytes @ 0x3
  1734                           
  1735     0073                     puts@s:	
  1736                           ; 1 bytes @ 0x3
  1737                           
  1738     0073                     strncmp@len:	
  1739                           ; 2 bytes @ 0x3
  1740                           
  1741                           
  1742                           ; 2 bytes @ 0x3
  1743     0073                     	ds	1
  1744     0074                     ??_read_ds1307:
  1745     0074                     ??_write_ds1307:	
  1746                           ; 1 bytes @ 0x4
  1747                           
  1748     0074                     ??_strcpy:	
  1749                           ; 1 bytes @ 0x4
  1750                           
  1751     0074                     ??_strcmp:	
  1752                           ; 1 bytes @ 0x4
  1753                           
  1754     0074                     ??_eeprom_at24c04_random_read:	
  1755                           ; 1 bytes @ 0x4
  1756                           
  1757     0074                     ??_read_adc:	
  1758                           ; 1 bytes @ 0x4
  1759                           
  1760     0074                     ??_eeprom_at24c04_byte_write:	
  1761                           ; 1 bytes @ 0x4
  1762                           
  1763     0074                     read_ds1307@addr:	
  1764                           ; 1 bytes @ 0x4
  1765                           
  1766     0074                     write_ds1307@addr:	
  1767                           ; 1 bytes @ 0x4
  1768                           
  1769     0074                     eeprom_at24c04_random_read@memory_loc:	
  1770                           ; 1 bytes @ 0x4
  1771                           
  1772     0074                     ___bmul@product:	
  1773                           ; 1 bytes @ 0x4
  1774                           
  1775     0074                     read_adc@adc_reg_val:	
  1776                           ; 1 bytes @ 0x4
  1777                           
  1778     0074                     ___awdiv@dividend:	
  1779                           ; 2 bytes @ 0x4
  1780                           
  1781     0074                     ___awmod@dividend:	
  1782                           ; 2 bytes @ 0x4
  1783                           
  1784     0074                     strncpy@size:	
  1785                           ; 2 bytes @ 0x4
  1786                           
  1787                           
  1788                           ; 2 bytes @ 0x4
  1789     0074                     	ds	1
  1790     0075                     ??_strncmp:
  1791     0075                     ??_puts:	
  1792                           ; 1 bytes @ 0x5
  1793                           
  1794     0075                     clcd_write@byte:	
  1795                           ; 1 bytes @ 0x5
  1796                           
  1797     0075                     read_ds1307@data:	
  1798                           ; 1 bytes @ 0x5
  1799                           
  1800     0075                     eeprom_at24c04_random_read@received_data:	
  1801                           ; 1 bytes @ 0x5
  1802                           
  1803     0075                     ___bmul@multiplier:	
  1804                           ; 1 bytes @ 0x5
  1805                           
  1806     0075                     strcpy@cp:	
  1807                           ; 1 bytes @ 0x5
  1808                           
  1809                           
  1810                           ; 1 bytes @ 0x5
  1811     0075                     	ds	1
  1812     0076                     ??_clear_screen:
  1813     0076                     ??_download_log:	
  1814                           ; 1 bytes @ 0x6
  1815                           
  1816     0076                     ??_strncpy:	
  1817                           ; 1 bytes @ 0x6
  1818                           
  1819     0076                     ??_init_display_controller:	
  1820                           ; 1 bytes @ 0x6
  1821                           
  1822     0076                     ?_clcd_print:	
  1823                           ; 1 bytes @ 0x6
  1824                           
  1825     0076                     ??_init_ds1307:	
  1826                           ; 1 bytes @ 0x6
  1827                           
  1828     0076                     ??_get_time:	
  1829                           ; 1 bytes @ 0x6
  1830                           
  1831     0076                     ??_read_event:	
  1832                           ; 1 bytes @ 0x6
  1833                           
  1834     0076                     ??___awdiv:	
  1835                           ; 1 bytes @ 0x6
  1836                           
  1837     0076                     ??___awmod:	
  1838                           ; 1 bytes @ 0x6
  1839                           
  1840     0076                     ?___lwdiv:	
  1841                           ; 1 bytes @ 0x6
  1842                           
  1843     0076                     init_ds1307@dummy:	
  1844                           ; 2 bytes @ 0x6
  1845                           
  1846     0076                     eeprom_at24c04_byte_write@memory_loc:	
  1847                           ; 1 bytes @ 0x6
  1848                           
  1849     0076                     strcmp@r:	
  1850                           ; 1 bytes @ 0x6
  1851                           
  1852     0076                     strcpy@to:	
  1853                           ; 1 bytes @ 0x6
  1854                           
  1855     0076                     clcd_print@str:	
  1856                           ; 1 bytes @ 0x6
  1857                           
  1858     0076                     ___lwdiv@divisor:	
  1859                           ; 2 bytes @ 0x6
  1860                           
  1861     0076                     ___lldiv@dividend:	
  1862                           ; 2 bytes @ 0x6
  1863                           
  1864                           
  1865                           ; 4 bytes @ 0x6
  1866     0076                     	ds	1
  1867     0077                     ?_eeprom_at24c04_str_write:
  1868     0077                     read_event@key:	
  1869                           ; 1 bytes @ 0x7
  1870                           
  1871     0077                     download_log@addr:	
  1872                           ; 1 bytes @ 0x7
  1873                           
  1874     0077                     ___awmod@counter:	
  1875                           ; 1 bytes @ 0x7
  1876                           
  1877     0077                     strcmp@s1:	
  1878                           ; 1 bytes @ 0x7
  1879                           
  1880     0077                     strncmp@s1:	
  1881                           ; 1 bytes @ 0x7
  1882                           
  1883     0077                     eeprom_at24c04_str_write@data:	
  1884                           ; 1 bytes @ 0x7
  1885                           
  1886                           
  1887                           ; 2 bytes @ 0x7
  1888     0077                     	ds	1
  1889     0078                     ??_init_clcd:
  1890     0078                     clcd_print@addr:	
  1891                           ; 1 bytes @ 0x8
  1892                           
  1893     0078                     read_event@addr:	
  1894                           ; 1 bytes @ 0x8
  1895                           
  1896     0078                     ___awmod@sign:	
  1897                           ; 1 bytes @ 0x8
  1898                           
  1899     0078                     ___lwdiv@dividend:	
  1900                           ; 1 bytes @ 0x8
  1901                           
  1902                           
  1903                           ; 2 bytes @ 0x8
  1904     0078                     	ds	1
  1905     0079                     ??_eeprom_at24c04_str_write:
  1906     0079                     ?_clcd_putch:	
  1907                           ; 1 bytes @ 0x9
  1908                           
  1909     0079                     ??_clcd_print:	
  1910                           ; 1 bytes @ 0x9
  1911                           
  1912     0079                     clcd_putch@addr:	
  1913                           ; 1 bytes @ 0x9
  1914                           
  1915                           
  1916                           ; 1 bytes @ 0x9
  1917     0079                     	ds	1
  1918     007A                     ??_view_log:
  1919     007A                     ??_clcd_putch:	
  1920                           ; 1 bytes @ 0xA
  1921                           
  1922     007A                     ??_init_config:	
  1923                           ; 1 bytes @ 0xA
  1924                           
  1925     007A                     ??_display_time:	
  1926                           ; 1 bytes @ 0xA
  1927                           
  1928                           
  1929                           	psect	cstackBANK0
  1930     0020                     __pcstackBANK0:	
  1931                           ; 1 bytes @ 0xA
  1932                           
  1933     0020                     ??___lldiv:
  1934     0020                     ??___lwdiv:	
  1935                           ; 1 bytes @ 0x0
  1936                           
  1937     0020                     eeprom_at24c04_str_write@memory_loc:	
  1938                           ; 1 bytes @ 0x0
  1939                           
  1940     0020                     ___awdiv@counter:	
  1941                           ; 1 bytes @ 0x0
  1942                           
  1943     0020                     strncpy@to:	
  1944                           ; 1 bytes @ 0x0
  1945                           
  1946                           
  1947                           ; 1 bytes @ 0x0
  1948     0020                     	ds	1
  1949     0021                     ??_clear_log:
  1950     0021                     ??_log_event:	
  1951                           ; 1 bytes @ 0x1
  1952                           
  1953     0021                     ___awdiv@sign:	
  1954                           ; 1 bytes @ 0x1
  1955                           
  1956     0021                     ___lwdiv@counter:	
  1957                           ; 1 bytes @ 0x1
  1958                           
  1959     0021                     strncpy@cp:	
  1960                           ; 1 bytes @ 0x1
  1961                           
  1962     0021                     ___lldiv@quotient:	
  1963                           ; 1 bytes @ 0x1
  1964                           
  1965                           
  1966                           ; 4 bytes @ 0x1
  1967     0021                     	ds	1
  1968     0022                     log_event@addr:
  1969     0022                     clear_log@addr:	
  1970                           ; 1 bytes @ 0x2
  1971                           
  1972     0022                     ___awdiv@quotient:	
  1973                           ; 1 bytes @ 0x2
  1974                           
  1975     0022                     ___lwdiv@quotient:	
  1976                           ; 2 bytes @ 0x2
  1977                           
  1978                           
  1979                           ; 2 bytes @ 0x2
  1980     0022                     	ds	2
  1981     0024                     ?_log_car_event:
  1982     0024                     clcd_putch@data:	
  1983                           ; 1 bytes @ 0x4
  1984                           
  1985     0024                     log_car_event@speed:	
  1986                           ; 1 bytes @ 0x4
  1987                           
  1988                           
  1989                           ; 1 bytes @ 0x4
  1990     0024                     	ds	1
  1991     0025                     ??_log_car_event:
  1992     0025                     ?_display_dash_board:	
  1993                           ; 1 bytes @ 0x5
  1994                           
  1995     0025                     ?_login:	
  1996                           ; 1 bytes @ 0x5
  1997                           
  1998     0025                     ?_login_menu:	
  1999                           ; 1 bytes @ 0x5
  2000                           
  2001     0025                     ??_set_time:	
  2002                           ; 1 bytes @ 0x5
  2003                           
  2004     0025                     ??_change_password:	
  2005                           ; 1 bytes @ 0x5
  2006                           
  2007     0025                     display_dash_board@speed:	
  2008                           ; 1 bytes @ 0x5
  2009                           
  2010     0025                     login@reset_flag:	
  2011                           ; 1 bytes @ 0x5
  2012                           
  2013     0025                     login_menu@reset_flag:	
  2014                           ; 1 bytes @ 0x5
  2015                           
  2016     0025                     view_log@key:	
  2017                           ; 1 bytes @ 0x5
  2018                           
  2019     0025                     ___lldiv@counter:	
  2020                           ; 1 bytes @ 0x5
  2021                           
  2022                           
  2023                           ; 1 bytes @ 0x5
  2024     0025                     	ds	1
  2025     0026                     ?_init_uart:
  2026     0026                     ??_display_dash_board:	
  2027                           ; 1 bytes @ 0x6
  2028                           
  2029     0026                     ??_login:	
  2030                           ; 1 bytes @ 0x6
  2031                           
  2032     0026                     ??_login_menu:	
  2033                           ; 1 bytes @ 0x6
  2034                           
  2035     0026                     ?_init_i2c:	
  2036                           ; 1 bytes @ 0x6
  2037                           
  2038     0026                     set_time@bar:	
  2039                           ; 1 bytes @ 0x6
  2040                           
  2041     0026                     change_password@bar:	
  2042                           ; 2 bytes @ 0x6
  2043                           
  2044     0026                     init_i2c@baud:	
  2045                           ; 2 bytes @ 0x6
  2046                           
  2047     0026                     init_uart@baud:	
  2048                           ; 4 bytes @ 0x6
  2049                           
  2050                           
  2051                           ; 4 bytes @ 0x6
  2052     0026                     	ds	1
  2053     0027                     log_car_event@event:
  2054                           
  2055                           ; 1 bytes @ 0x7
  2056     0027                     	ds	1
  2057     0028                     display_dash_board@event:
  2058     0028                     set_time@key:	
  2059                           ; 1 bytes @ 0x8
  2060                           
  2061     0028                     change_password@key:	
  2062                           ; 1 bytes @ 0x8
  2063                           
  2064                           
  2065                           ; 1 bytes @ 0x8
  2066     0028                     	ds	1
  2067     0029                     login@spassword:
  2068     0029                     change_password@npassword:	
  2069                           ; 4 bytes @ 0x9
  2070                           
  2071                           
  2072                           ; 4 bytes @ 0x9
  2073     0029                     	ds	1
  2074     002A                     ??_init_uart:
  2075     002A                     ??_init_i2c:	
  2076                           ; 1 bytes @ 0xA
  2077                           
  2078     002A                     login_menu@menu:	
  2079                           ; 1 bytes @ 0xA
  2080                           
  2081                           
  2082                           ; 10 bytes @ 0xA
  2083     002A                     	ds	3
  2084     002D                     login@npassword:
  2085                           
  2086                           ; 4 bytes @ 0xD
  2087     002D                     	ds	4
  2088     0031                     login@key:
  2089                           
  2090                           ; 1 bytes @ 0x11
  2091     0031                     	ds	1
  2092     0032                     login@j:
  2093                           
  2094                           ; 2 bytes @ 0x12
  2095     0032                     	ds	2
  2096     0034                     login_menu@key:
  2097                           
  2098                           ; 1 bytes @ 0x14
  2099     0034                     	ds	1
  2100     0035                     ??_main:
  2101                           
  2102                           ; 1 bytes @ 0x15
  2103     0035                     	ds	4
  2104                           
  2105                           	psect	maintext
  2106     004A                     __pmaintext:	
  2107 ;;
  2108 ;;Main: autosize = 0, tempsize = 4, incstack = 0, save=0
  2109 ;;
  2110 ;; *************** function _main *****************
  2111 ;; Defined at:
  2112 ;;		line 30 in file "main.c"
  2113 ;; Parameters:    Size  Location     Type
  2114 ;;		None
  2115 ;; Auto vars:     Size  Location     Type
  2116 ;;  j               2   20[BANK3 ] int 
  2117 ;;  gear           12    8[BANK3 ] PTR unsigned char [6]
  2118 ;;		 -> STR_6(3), STR_5(3), STR_4(3), STR_3(3), 
  2119 ;;		 -> STR_2(3), STR_1(3), 
  2120 ;;  ch              8    0[BANK3 ] unsigned char [8]
  2121 ;;  event           3   26[BANK3 ] unsigned char [3]
  2122 ;;  key             1   32[BANK3 ] unsigned char 
  2123 ;;  control_flag    1   31[BANK3 ] unsigned char 
  2124 ;;  speed           1   30[BANK3 ] unsigned char 
  2125 ;;  reset_flag      1   29[BANK3 ] unsigned char 
  2126 ;;  d_flag          1   25[BANK3 ] unsigned char 
  2127 ;;  gr              1   24[BANK3 ] unsigned char 
  2128 ;;  wait            1   23[BANK3 ] unsigned char 
  2129 ;;  var             1   22[BANK3 ] unsigned char 
  2130 ;;  menu_entry      1    0        unsigned char 
  2131 ;;  key_2           1    0        unsigned char 
  2132 ;; Return value:  Size  Location     Type
  2133 ;;                  1    wreg      void 
  2134 ;; Registers used:
  2135 ;;		wreg, fsr0l, fsr0h, status,2, status,0, btemp+1, pclath, cstack
  2136 ;; Tracked objects:
  2137 ;;		On entry : B00/0
  2138 ;;		On exit  : 0/0
  2139 ;;		Unchanged: 0/0
  2140 ;; Data sizes:     COMMON   BANK0   BANK1   BANK3   BANK2
  2141 ;;      Params:         0       0       0       0       0
  2142 ;;      Locals:         0       0       0      33       0
  2143 ;;      Temps:          0       4       0       0       0
  2144 ;;      Totals:         0       4       0      33       0
  2145 ;;Total ram usage:       37 bytes
  2146 ;; Hardware stack levels required when called: 7
  2147 ;; This function calls:
  2148 ;;		___lwdiv
  2149 ;;		_change_password
  2150 ;;		_clcd_print
  2151 ;;		_clcd_write
  2152 ;;		_clear_log
  2153 ;;		_clear_screen
  2154 ;;		_display_dash_board
  2155 ;;		_download_log
  2156 ;;		_eeprom_at24c04_str_write
  2157 ;;		_init_config
  2158 ;;		_log_car_event
  2159 ;;		_login
  2160 ;;		_login_menu
  2161 ;;		_read_adc
  2162 ;;		_read_digital_keypad
  2163 ;;		_set_time
  2164 ;;		_strcpy
  2165 ;;		_view_log
  2166 ;; This function is called by:
  2167 ;;		Startup code after reset
  2168 ;; This function uses a non-reentrant model
  2169 ;;
  2170                           
  2171     004A                     _main:	
  2172                           ;psect for function _main
  2173                           
  2174     004A                     l5197:	
  2175                           ;incstack = 0
  2176                           ; Regs used in _main: [wreg-fsr0h+status,2+status,0+btemp+1+pclath+cstack]
  2177                           
  2178                           
  2179                           ;main.c: 31: 
  2180     004A  120A  158A  2054  120A  118A  	fcall	_init_config
  2181     004F                     l5199:
  2182                           
  2183                           ;main.c: 32: 
  2184     004F  1683               	bsf	3,5	;RP0=1, select bank3
  2185     0050  1703               	bsf	3,6	;RP1=1, select bank3
  2186     0051  01AF               	clrf	main@control_flag^(0+384)
  2187     0052  0AAF               	incf	main@control_flag^(0+384),f
  2188     0053                     l5201:
  2189                           
  2190                           ;main.c: 33:     eeprom_at24c04_str_write(0x00, "1010");
  2191     0053  1683               	bsf	3,5	;RP0=1, select bank1
  2192     0054  1303               	bcf	3,6	;RP1=0, select bank1
  2193     0055  083E               	movf	main@F957^(0+128),w
  2194     0056  1683               	bsf	3,5	;RP0=1, select bank3
  2195     0057  1703               	bsf	3,6	;RP1=1, select bank3
  2196     0058  00AA               	movwf	main@event^(0+384)
  2197     0059  1683               	bsf	3,5	;RP0=1, select bank1
  2198     005A  1303               	bcf	3,6	;RP1=0, select bank1
  2199     005B  083F               	movf	(main@F957+1)^(0+128),w
  2200     005C  1683               	bsf	3,5	;RP0=1, select bank3
  2201     005D  1703               	bsf	3,6	;RP1=1, select bank3
  2202     005E  00AB               	movwf	(main@event+1)^(0+384)
  2203     005F  1683               	bsf	3,5	;RP0=1, select bank1
  2204     0060  1303               	bcf	3,6	;RP1=0, select bank1
  2205     0061  0840               	movf	(main@F957+2)^(0+128),w
  2206     0062  1683               	bsf	3,5	;RP0=1, select bank3
  2207     0063  1703               	bsf	3,6	;RP1=1, select bank3
  2208     0064  00AC               	movwf	(main@event+2)^(0+384)
  2209     0065                     l5203:
  2210                           
  2211                           ;main.c: 34:     while (1) {
  2212     0065  01AE               	clrf	main@speed^(0+384)
  2213     0066                     l5205:
  2214     0066  01A8               	clrf	main@gr^(0+384)
  2215     0067                     l5207:
  2216                           
  2217                           ;main.c: 35: 
  2218     0067  1283               	bcf	3,5	;RP0=0, select bank0
  2219     0068  1303               	bcf	3,6	;RP1=0, select bank0
  2220     0069  01A4               	clrf	log_car_event@speed
  2221     006A  30AA               	movlw	(low (main@event| (0+256)))& (0+255)
  2222     006B  120A  158A  22DC  120A  118A  	fcall	_log_car_event
  2223     0070                     l5209:
  2224                           
  2225                           ;main.c: 36: 
  2226     0070  3098               	movlw	main@gear& (0+255)
  2227     0071  0084               	movwf	4
  2228     0072  30A0               	movlw	low main@F961
  2229     0073  1283               	bcf	3,5	;RP0=0, select bank0
  2230     0074  1303               	bcf	3,6	;RP1=0, select bank0
  2231     0075  00B5               	movwf	??_main
  2232     0076  0804               	movf	4,w
  2233     0077  00B6               	movwf	??_main+1
  2234     0078  300C               	movlw	12
  2235     0079  00B7               	movwf	??_main+2
  2236     007A                     u5020:
  2237     007A  0835               	movf	??_main,w
  2238     007B  0084               	movwf	4
  2239     007C  1383               	bcf	3,7	;select IRP bank1
  2240     007D  0800               	movf	0,w
  2241     007E  00B8               	movwf	??_main+3
  2242     007F  0AB5               	incf	??_main,f
  2243     0080  0836               	movf	??_main+1,w
  2244     0081  0084               	movwf	4
  2245     0082  1783               	bsf	3,7	;select IRP bank3
  2246     0083  0838               	movf	??_main+3,w
  2247     0084  0080               	movwf	0
  2248     0085  0AB6               	incf	??_main+1,f
  2249     0086  0BB7               	decfsz	??_main+2,f
  2250     0087  287A               	goto	u5020
  2251     0088                     l5211:
  2252                           
  2253                           ;main.c: 37: ;main.c: 38:         key = read_digital_keypad(1);
  2254     0088  3010               	movlw	16
  2255     0089  1683               	bsf	3,5	;RP0=1, select bank3
  2256     008A  1703               	bsf	3,6	;RP1=1, select bank3
  2257     008B  00AD               	movwf	main@reset_flag^(0+384)
  2258     008C                     l5213:
  2259                           
  2260                           ;main.c: 39: 
  2261     008C  01A6               	clrf	main@var^(0+384)
  2262     008D                     l5215:
  2263                           
  2264                           ;main.c: 40:         for(int j = 5000;j--;);
  2265     008D  01A7               	clrf	main@wait^(0+384)
  2266     008E                     l5217:
  2267     008E                     l5219:
  2268                           
  2269                           ;main.c: 42:         if(control_flag == 0x01)
  2270     008E  01A9               	clrf	main@d_flag^(0+384)
  2271     008F                     l5221:
  2272                           
  2273                           ;main.c: 43:         {
  2274     008F  3090               	movlw	main@ch& (0+255)
  2275     0090  0084               	movwf	4
  2276     0091  30B6               	movlw	low main@F970
  2277     0092  1283               	bcf	3,5	;RP0=0, select bank0
  2278     0093  1303               	bcf	3,6	;RP1=0, select bank0
  2279     0094  00B5               	movwf	??_main
  2280     0095  0804               	movf	4,w
  2281     0096  00B6               	movwf	??_main+1
  2282     0097  3008               	movlw	8
  2283     0098  00B7               	movwf	??_main+2
  2284     0099                     u5030:
  2285     0099  0835               	movf	??_main,w
  2286     009A  0084               	movwf	4
  2287     009B  1383               	bcf	3,7	;select IRP bank1
  2288     009C  0800               	movf	0,w
  2289     009D  00B8               	movwf	??_main+3
  2290     009E  0AB5               	incf	??_main,f
  2291     009F  0836               	movf	??_main+1,w
  2292     00A0  0084               	movwf	4
  2293     00A1  1783               	bsf	3,7	;select IRP bank3
  2294     00A2  0838               	movf	??_main+3,w
  2295     00A3  0080               	movwf	0
  2296     00A4  0AB6               	incf	??_main+1,f
  2297     00A5  0BB7               	decfsz	??_main+2,f
  2298     00A6  2899               	goto	u5030
  2299     00A7                     l5223:
  2300                           
  2301                           ;main.c: 46: 
  2302     00A7  3003               	movlw	low (STR_7| (0+32768))
  2303     00A8  00F7               	movwf	eeprom_at24c04_str_write@data
  2304     00A9  3088               	movlw	high (STR_7| (0+32768))
  2305     00AA  00F8               	movwf	eeprom_at24c04_str_write@data+1
  2306     00AB  3000               	movlw	0
  2307     00AC  120A  158A  2025  120A  118A  	fcall	_eeprom_at24c04_str_write
  2308     00B1                     l202:	
  2309                           ;main.c: 47: 
  2310                           
  2311                           
  2312                           ;main.c: 51:             }
  2313     00B1  3001               	movlw	1
  2314     00B2  160A  118A  268F  120A  118A  	fcall	_read_digital_keypad
  2315     00B7  1683               	bsf	3,5	;RP0=1, select bank3
  2316     00B8  1703               	bsf	3,6	;RP1=1, select bank3
  2317     00B9  00B0               	movwf	main@key^(0+384)
  2318     00BA                     l5225:
  2319                           
  2320                           ;main.c: 53:             if(key == 0x3E)
  2321     00BA  3088               	movlw	136
  2322     00BB  00A4               	movwf	main@j^(0+384)
  2323     00BC  3013               	movlw	19
  2324     00BD  00A5               	movwf	(main@j^(0+384)+1)
  2325     00BE                     l5227:
  2326     00BE  30FF               	movlw	255
  2327     00BF  07A4               	addwf	main@j^(0+384),f
  2328     00C0  1803               	skipnc
  2329     00C1  0AA5               	incf	(main@j+1)^(0+384),f
  2330     00C2  30FF               	movlw	255
  2331     00C3  07A5               	addwf	(main@j+1)^(0+384),f
  2332     00C4  0A24               	incf	main@j^(0+384),w
  2333     00C5  1D03               	skipz
  2334     00C6  28CB               	goto	u5041
  2335     00C7  0A25               	incf	(main@j+1)^(0+384),w
  2336     00C8  1D03               	btfss	3,2
  2337     00C9  28CB               	goto	u5041
  2338     00CA  28CC               	goto	u5040
  2339     00CB                     u5041:
  2340     00CB  28BE               	goto	l5227
  2341     00CC                     u5040:
  2342     00CC                     l5229:
  2343                           
  2344                           ;main.c: 55: 
  2345     00CC  032F               	decf	main@control_flag^(0+384),w
  2346     00CD  1D03               	btfss	3,2
  2347     00CE  28D0               	goto	u5051
  2348     00CF  28D1               	goto	u5050
  2349     00D0                     u5051:
  2350     00D0  29A5               	goto	l5285
  2351     00D1                     u5050:
  2352     00D1                     l5231:
  2353                           
  2354                           ;main.c: 56:                 strcpy(event, "C ");;main.c: 58:                 d_flag = 0
      +                          ;
  2355     00D1  300A               	movlw	10
  2356     00D2  00F6               	movwf	___lwdiv@divisor
  2357     00D3  3000               	movlw	0
  2358     00D4  00F7               	movwf	___lwdiv@divisor+1
  2359     00D5  160A  118A  2537  120A  118A  	fcall	_read_adc
  2360     00DA  0873               	movf	?_read_adc+1,w
  2361     00DB  00F9               	movwf	___lwdiv@dividend+1
  2362     00DC  0872               	movf	?_read_adc,w
  2363     00DD  00F8               	movwf	___lwdiv@dividend
  2364     00DE  120A  158A  214C  120A  118A  	fcall	___lwdiv
  2365     00E3  0876               	movf	?___lwdiv,w
  2366     00E4  1683               	bsf	3,5	;RP0=1, select bank3
  2367     00E5  1703               	bsf	3,6	;RP1=1, select bank3
  2368     00E6  00AE               	movwf	main@speed^(0+384)
  2369     00E7                     l5233:
  2370                           
  2371                           ;main.c: 61:             {
  2372     00E7  3064               	movlw	100
  2373     00E8  022E               	subwf	main@speed^(0+384),w
  2374     00E9  1C03               	skipc
  2375     00EA  28EC               	goto	u5061
  2376     00EB  28ED               	goto	u5060
  2377     00EC                     u5061:
  2378     00EC  28EF               	goto	l5237
  2379     00ED                     u5060:
  2380     00ED                     l5235:
  2381                           
  2382                           ;main.c: 62: ;main.c: 63:                 strcpy(event, gear[gr]);
  2383     00ED  3063               	movlw	99
  2384     00EE  00AE               	movwf	main@speed^(0+384)
  2385     00EF                     l5237:
  2386                           
  2387                           ;main.c: 66:                 d_flag = 0;
  2388     00EF  303E               	movlw	62
  2389     00F0  0630               	xorwf	main@key^(0+384),w
  2390     00F1  1D03               	btfss	3,2
  2391     00F2  28F4               	goto	u5071
  2392     00F3  28F5               	goto	u5070
  2393     00F4                     u5071:
  2394     00F4  290F               	goto	l5243
  2395     00F5                     u5070:
  2396     00F5                     l5239:
  2397                           
  2398                           ;main.c: 67:             };main.c: 69:             {
  2399     00F5  3010               	movlw	low (STR_8| (0+32768))
  2400     00F6  00F2               	movwf	strcpy@from
  2401     00F7  3088               	movlw	high (STR_8| (0+32768))
  2402     00F8  00F3               	movwf	strcpy@from+1
  2403     00F9  30AA               	movlw	(low (main@event| (0+256)))& (0+255)
  2404     00FA  160A  118A  261D  120A  118A  	fcall	_strcpy
  2405                           
  2406                           ;main.c: 70: 
  2407     00FF  1683               	bsf	3,5	;RP0=1, select bank3
  2408     0100  1703               	bsf	3,6	;RP1=1, select bank3
  2409     0101  082E               	movf	main@speed^(0+384),w
  2410     0102  1283               	bcf	3,5	;RP0=0, select bank0
  2411     0103  1303               	bcf	3,6	;RP1=0, select bank0
  2412     0104  00A4               	movwf	log_car_event@speed
  2413     0105  30AA               	movlw	(low (main@event| (0+256)))& (0+255)
  2414     0106  120A  158A  22DC  120A  118A  	fcall	_log_car_event
  2415     010B                     l5241:
  2416                           
  2417                           ;main.c: 71:                 gr--;
  2418     010B  1683               	bsf	3,5	;RP0=1, select bank3
  2419     010C  1703               	bsf	3,6	;RP1=1, select bank3
  2420     010D  01A9               	clrf	main@d_flag^(0+384)
  2421                           
  2422                           ;main.c: 72:                 strcpy(event, gear[gr]);
  2423     010E  29A5               	goto	l5285
  2424     010F                     l5243:
  2425     010F  303D               	movlw	61
  2426     0110  0630               	xorwf	main@key^(0+384),w
  2427     0111  1D03               	btfss	3,2
  2428     0112  2914               	goto	u5081
  2429     0113  2915               	goto	u5080
  2430     0114                     u5081:
  2431     0114  293C               	goto	l5253
  2432     0115                     u5080:
  2433     0115                     l5245:
  2434                           
  2435                           ;main.c: 74:                 d_flag = 0;;main.c: 76:             else if((key == 0x37 ||
      +                           key == 0x2F) && control_flag == 0x01 )
  2436     0115  0828               	movf	main@gr^(0+384),w
  2437     0116  1283               	bcf	3,5	;RP0=0, select bank0
  2438     0117  1303               	bcf	3,6	;RP1=0, select bank0
  2439     0118  00B5               	movwf	??_main
  2440     0119  0735               	addwf	??_main,w
  2441     011A  3E98               	addlw	(low (main@gear| (0+256)))& (0+255)
  2442     011B  0084               	movwf	4
  2443     011C  1783               	bsf	3,7	;select IRP bank3
  2444     011D  0800               	movf	0,w
  2445     011E  00F2               	movwf	strcpy@from
  2446     011F  0A84               	incf	4,f
  2447     0120  0800               	movf	0,w
  2448     0121  0384               	decf	4,f
  2449     0122  00F3               	movwf	strcpy@from+1
  2450     0123  30AA               	movlw	(low (main@event| (0+256)))& (0+255)
  2451     0124  160A  118A  261D  120A  118A  	fcall	_strcpy
  2452     0129                     l5247:
  2453                           
  2454                           ;main.c: 77:             {
  2455     0129  3001               	movlw	1
  2456     012A  1283               	bcf	3,5	;RP0=0, select bank0
  2457     012B  1303               	bcf	3,6	;RP1=0, select bank0
  2458     012C  00B5               	movwf	??_main
  2459     012D  0835               	movf	??_main,w
  2460     012E  1683               	bsf	3,5	;RP0=1, select bank3
  2461     012F  1703               	bsf	3,6	;RP1=1, select bank3
  2462     0130  07A8               	addwf	main@gr^(0+384),f
  2463     0131                     l5249:
  2464                           
  2465                           ;main.c: 78: 
  2466     0131  082E               	movf	main@speed^(0+384),w
  2467     0132  1283               	bcf	3,5	;RP0=0, select bank0
  2468     0133  1303               	bcf	3,6	;RP1=0, select bank0
  2469     0134  00A4               	movwf	log_car_event@speed
  2470     0135  30AA               	movlw	(low (main@event| (0+256)))& (0+255)
  2471     0136  120A  158A  22DC  120A  118A  	fcall	_log_car_event
  2472     013B  290B               	goto	l5241
  2473     013C                     l5253:
  2474     013C  303B               	movlw	59
  2475     013D  0630               	xorwf	main@key^(0+384),w
  2476     013E  1D03               	btfss	3,2
  2477     013F  2941               	goto	u5091
  2478     0140  2942               	goto	u5090
  2479     0141                     u5091:
  2480     0141  2965               	goto	l5263
  2481     0142                     u5090:
  2482     0142                     l5255:
  2483                           
  2484                           ;main.c: 82:                 clcd_write(0x0F, 0);;main.c: 84:                 control_fl
      +                          ag = 0X02;;
  2485     0142  3001               	movlw	1
  2486     0143  02A8               	subwf	main@gr^(0+384),f
  2487     0144                     l5257:
  2488                           
  2489                           ;main.c: 85:                 reset_flag = 0x10;;
  2490     0144  0828               	movf	main@gr^(0+384),w
  2491     0145  1283               	bcf	3,5	;RP0=0, select bank0
  2492     0146  1303               	bcf	3,6	;RP1=0, select bank0
  2493     0147  00B5               	movwf	??_main
  2494     0148  0735               	addwf	??_main,w
  2495     0149  3E98               	addlw	(low (main@gear| (0+256)))& (0+255)
  2496     014A  0084               	movwf	4
  2497     014B  1783               	bsf	3,7	;select IRP bank3
  2498     014C  0800               	movf	0,w
  2499     014D  00F2               	movwf	strcpy@from
  2500     014E  0A84               	incf	4,f
  2501     014F  0800               	movf	0,w
  2502     0150  0384               	decf	4,f
  2503     0151  00F3               	movwf	strcpy@from+1
  2504     0152  30AA               	movlw	(low (main@event| (0+256)))& (0+255)
  2505     0153  160A  118A  261D  120A  118A  	fcall	_strcpy
  2506     0158                     l5259:
  2507                           
  2508                           ;main.c: 86:                 TMR2ON = 1;
  2509     0158  1683               	bsf	3,5	;RP0=1, select bank3
  2510     0159  1703               	bsf	3,6	;RP1=1, select bank3
  2511     015A  082E               	movf	main@speed^(0+384),w
  2512     015B  1283               	bcf	3,5	;RP0=0, select bank0
  2513     015C  1303               	bcf	3,6	;RP1=0, select bank0
  2514     015D  00A4               	movwf	log_car_event@speed
  2515     015E  30AA               	movlw	(low (main@event| (0+256)))& (0+255)
  2516     015F  120A  158A  22DC  120A  118A  	fcall	_log_car_event
  2517     0164  290B               	goto	l5241
  2518     0165                     l5263:
  2519     0165  3037               	movlw	55
  2520     0166  0630               	xorwf	main@key^(0+384),w
  2521     0167  1903               	btfsc	3,2
  2522     0168  296A               	goto	u5101
  2523     0169  296B               	goto	u5100
  2524     016A                     u5101:
  2525     016A  2971               	goto	l5267
  2526     016B                     u5100:
  2527     016B                     l5265:
  2528     016B  302F               	movlw	47
  2529     016C  0630               	xorwf	main@key^(0+384),w
  2530     016D  1D03               	btfss	3,2
  2531     016E  2970               	goto	u5111
  2532     016F  2971               	goto	u5110
  2533     0170                     u5111:
  2534     0170  29A5               	goto	l209
  2535     0171                     u5110:
  2536     0171                     l5267:
  2537     0171  032F               	decf	main@control_flag^(0+384),w
  2538     0172  1D03               	btfss	3,2
  2539     0173  2975               	goto	u5121
  2540     0174  2976               	goto	u5120
  2541     0175                     u5121:
  2542     0175  29A5               	goto	l209
  2543     0176                     u5120:
  2544     0176                     l5269:
  2545                           
  2546                           ;main.c: 90: ;main.c: 92:         if((control_flag == 0xAA) && key == 0x1F)
  2547     0176  160A  118A  2526  120A  118A  	fcall	_clear_screen
  2548     017B                     l5271:
  2549                           
  2550                           ;main.c: 93:         {
  2551     017B  3069               	movlw	low (STR_9| (0+32768))
  2552     017C  00F6               	movwf	clcd_print@str
  2553     017D  3087               	movlw	high (STR_9| (0+32768))
  2554     017E  00F7               	movwf	clcd_print@str+1
  2555     017F  3080               	movlw	128
  2556     0180  00F8               	movwf	clcd_print@addr
  2557     0181  160A  118A  273D  120A  118A  	fcall	_clcd_print
  2558     0186                     l5273:
  2559                           
  2560                           ;main.c: 94:             if(wait == 0)
  2561     0186  01F2               	clrf	clcd_write@mode
  2562     0187  30C6               	movlw	198
  2563     0188  160A  118A  25B7  120A  118A  	fcall	_clcd_write
  2564     018D                     l5275:
  2565                           
  2566                           ;main.c: 95:             {
  2567     018D  01F2               	clrf	clcd_write@mode
  2568     018E  300F               	movlw	15
  2569     018F  160A  118A  25B7  120A  118A  	fcall	_clcd_write
  2570     0194                     l5277:
  2571                           
  2572                           ;main.c: 96:                 switch(var)
  2573     0194  30A5               	movlw	165
  2574     0195  1283               	bcf	3,5	;RP0=0, select bank0
  2575     0196  1303               	bcf	3,6	;RP1=0, select bank0
  2576     0197  00B5               	movwf	??_main
  2577     0198                     u5247:
  2578     0198  0BB5               	decfsz	??_main,f
  2579     0199  2998               	goto	u5247
  2580     019A  299B               	nop2
  2581     019B                     l5279:
  2582                           
  2583                           ;main.c: 97:                 {
  2584     019B  3002               	movlw	2
  2585     019C  1683               	bsf	3,5	;RP0=1, select bank3
  2586     019D  1703               	bsf	3,6	;RP1=1, select bank3
  2587     019E  00AF               	movwf	main@control_flag^(0+384)
  2588     019F                     l5281:
  2589                           
  2590                           ;main.c: 98:                     case 0x00:
  2591     019F  3010               	movlw	16
  2592     01A0  00AD               	movwf	main@reset_flag^(0+384)
  2593     01A1                     l5283:
  2594                           
  2595                           ;main.c: 99: 
  2596     01A1  1283               	bcf	3,5	;RP0=0, select bank0
  2597     01A2  1303               	bcf	3,6	;RP1=0, select bank0
  2598     01A3  1512               	bsf	18,2	;volatile
  2599     01A4  29A5               	goto	l5285
  2600     01A5                     l209:
  2601     01A5                     l5285:
  2602                           
  2603                           ;main.c: 105: 
  2604     01A5  30AA               	movlw	170
  2605     01A6  1683               	bsf	3,5	;RP0=1, select bank3
  2606     01A7  1703               	bsf	3,6	;RP1=1, select bank3
  2607     01A8  062F               	xorwf	main@control_flag^(0+384),w
  2608     01A9  1D03               	btfss	3,2
  2609     01AA  29AC               	goto	u5131
  2610     01AB  29AD               	goto	u5130
  2611     01AC                     u5131:
  2612     01AC  2B11               	goto	l5407
  2613     01AD                     u5130:
  2614     01AD                     l5287:
  2615     01AD  301F               	movlw	31
  2616     01AE  0630               	xorwf	main@key^(0+384),w
  2617     01AF  1D03               	btfss	3,2
  2618     01B0  29B2               	goto	u5141
  2619     01B1  29B3               	goto	u5140
  2620     01B2                     u5141:
  2621     01B2  2B11               	goto	l5407
  2622     01B3                     u5140:
  2623     01B3                     l5289:
  2624                           
  2625                           ;main.c: 106:                         control_flag = 0xDD;;;main.c: 107:                
      +                                   break;
  2626     01B3  0827               	movf	main@wait^(0+384),w
  2627     01B4  1D03               	btfss	3,2
  2628     01B5  29B7               	goto	u5151
  2629     01B6  29B8               	goto	u5150
  2630     01B7                     u5151:
  2631     01B7  2B11               	goto	l5407
  2632     01B8                     u5150:
  2633     01B8  29D6               	goto	l5307
  2634     01B9                     l5293:
  2635                           
  2636                           ;main.c: 113: 
  2637     01B9  30CC               	movlw	204
  2638     01BA  1683               	bsf	3,5	;RP0=1, select bank3
  2639     01BB  1703               	bsf	3,6	;RP1=1, select bank3
  2640     01BC  00AF               	movwf	main@control_flag^(0+384)
  2641     01BD                     l5295:
  2642                           
  2643                           ;main.c: 114:                     case 0x03:
  2644     01BD  1283               	bcf	3,5	;RP0=0, select bank0
  2645     01BE  1303               	bcf	3,6	;RP1=0, select bank0
  2646     01BF  01D0               	clrf	_first_time
  2647     01C0  0AD0               	incf	_first_time,f
  2648                           
  2649                           ;main.c: 115: 
  2650     01C1  29F1               	goto	l5309
  2651     01C2                     l5297:
  2652                           
  2653                           ;main.c: 119:                     case 0x04:
  2654     01C2  30DD               	movlw	221
  2655     01C3  1683               	bsf	3,5	;RP0=1, select bank3
  2656     01C4  1703               	bsf	3,6	;RP1=1, select bank3
  2657     01C5  00AF               	movwf	main@control_flag^(0+384)
  2658                           
  2659                           ;main.c: 120: 
  2660     01C6  29F1               	goto	l5309
  2661     01C7                     l5299:
  2662                           
  2663                           ;main.c: 124:                         break;
  2664     01C7  30EE               	movlw	238
  2665     01C8  1683               	bsf	3,5	;RP0=1, select bank3
  2666     01C9  1703               	bsf	3,6	;RP1=1, select bank3
  2667     01CA  00AF               	movwf	main@control_flag^(0+384)
  2668                           
  2669                           ;main.c: 125:                 }
  2670     01CB  29F1               	goto	l5309
  2671     01CC                     l5301:
  2672                           
  2673                           ;main.c: 129:                 key = 0x00;
  2674     01CC  30FF               	movlw	255
  2675     01CD  1683               	bsf	3,5	;RP0=1, select bank3
  2676     01CE  1703               	bsf	3,6	;RP1=1, select bank3
  2677     01CF  00AF               	movwf	main@control_flag^(0+384)
  2678                           
  2679                           ;main.c: 130:             }
  2680     01D0  29F1               	goto	l5309
  2681     01D1                     l5303:
  2682                           
  2683                           ;main.c: 134:         switch(control_flag)
  2684     01D1  30A1               	movlw	161
  2685     01D2  1683               	bsf	3,5	;RP0=1, select bank3
  2686     01D3  1703               	bsf	3,6	;RP1=1, select bank3
  2687     01D4  00AF               	movwf	main@control_flag^(0+384)
  2688                           
  2689                           ;main.c: 137:                 display_dash_board(event, speed);
  2690     01D5  29F1               	goto	l5309
  2691     01D6                     l5307:
  2692     01D6  0826               	movf	main@var^(0+384),w
  2693     01D7  1283               	bcf	3,5	;RP0=0, select bank0
  2694     01D8  1303               	bcf	3,6	;RP1=0, select bank0
  2695     01D9  00B5               	movwf	??_main
  2696     01DA  01B6               	clrf	??_main+1
  2697                           
  2698                           ; Switch on 2 bytes has been partitioned into a top level switch of size 1, and 1 sub-sw
      +                          itches
  2699                           ; Switch size 1, requested type "simple"
  2700                           ; Number of cases is 1, Range of values is 0 to 0
  2701                           ; switch strategies available:
  2702                           ; Name         Instructions Cycles
  2703                           ; simple_byte            4     3 (average)
  2704                           ; direct_byte           11     8 (fixed)
  2705                           ; jumptable            260     6 (fixed)
  2706                           ;	Chosen strategy is simple_byte
  2707     01DB  0836               	movf	??_main+1,w
  2708     01DC  3A00               	xorlw	0	; case 0
  2709     01DD  1903               	skipnz
  2710     01DE  29E0               	goto	l5555
  2711     01DF  29F1               	goto	l5309
  2712     01E0                     l5555:
  2713                           
  2714                           ; Switch size 1, requested type "simple"
  2715                           ; Number of cases is 5, Range of values is 0 to 4
  2716                           ; switch strategies available:
  2717                           ; Name         Instructions Cycles
  2718                           ; simple_byte           16     9 (average)
  2719                           ; direct_byte           23     8 (fixed)
  2720                           ; jumptable            260     6 (fixed)
  2721                           ;	Chosen strategy is simple_byte
  2722     01E0  0835               	movf	??_main,w
  2723     01E1  3A00               	xorlw	0	; case 0
  2724     01E2  1903               	skipnz
  2725     01E3  29B9               	goto	l5293
  2726     01E4  3A01               	xorlw	1	; case 1
  2727     01E5  1903               	skipnz
  2728     01E6  29C2               	goto	l5297
  2729     01E7  3A03               	xorlw	3	; case 2
  2730     01E8  1903               	skipnz
  2731     01E9  29C7               	goto	l5299
  2732     01EA  3A01               	xorlw	1	; case 3
  2733     01EB  1903               	skipnz
  2734     01EC  29CC               	goto	l5301
  2735     01ED  3A07               	xorlw	7	; case 4
  2736     01EE  1903               	skipnz
  2737     01EF  29D1               	goto	l5303
  2738     01F0  29F1               	goto	l5309
  2739     01F1                     l5309:
  2740                           
  2741                           ;main.c: 139: 
  2742     01F1  160A  118A  2526  120A  118A  	fcall	_clear_screen
  2743     01F6                     l5311:
  2744                           
  2745                           ;main.c: 141:                 switch(login(key, reset_flag))
  2746     01F6  1683               	bsf	3,5	;RP0=1, select bank3
  2747     01F7  1703               	bsf	3,6	;RP1=1, select bank3
  2748     01F8  01A7               	clrf	main@wait^(0+384)
  2749     01F9                     l5313:
  2750                           
  2751                           ;main.c: 142:                 {
  2752     01F9  01B0               	clrf	main@key^(0+384)
  2753     01FA  2B11               	goto	l5407
  2754     01FB                     l5315:
  2755                           
  2756                           ;main.c: 150:                     case 0xB0 :
  2757     01FB  1683               	bsf	3,5	;RP0=1, select bank3
  2758     01FC  1703               	bsf	3,6	;RP1=1, select bank3
  2759     01FD  082E               	movf	main@speed^(0+384),w
  2760     01FE  1283               	bcf	3,5	;RP0=0, select bank0
  2761     01FF  1303               	bcf	3,6	;RP1=0, select bank0
  2762     0200  00A5               	movwf	display_dash_board@speed
  2763     0201  30AA               	movlw	(low (main@event| (0+256)))& (0+255)
  2764     0202  120A  118A  268F  120A  118A  	fcall	_display_dash_board
  2765                           
  2766                           ;main.c: 151:                         control_flag = 0xAA;;
  2767     0207  2B35               	goto	l5409
  2768     0208                     l5317:
  2769                           
  2770                           ;main.c: 157:                         break;
  2771     0208  01F2               	clrf	clcd_write@mode
  2772     0209  300C               	movlw	12
  2773     020A  160A  118A  25B7  120A  118A  	fcall	_clcd_write
  2774     020F                     l5319:
  2775                           
  2776                           ;main.c: 158:                 }
  2777     020F  30A5               	movlw	165
  2778     0210  1283               	bcf	3,5	;RP0=0, select bank0
  2779     0211  1303               	bcf	3,6	;RP1=0, select bank0
  2780     0212  00B5               	movwf	??_main
  2781     0213                     u5257:
  2782     0213  0BB5               	decfsz	??_main,f
  2783     0214  2A13               	goto	u5257
  2784     0215  2A16               	nop2
  2785     0216                     l5321:
  2786                           
  2787                           ;main.c: 159:                 break;
  2788     0216  1283               	bcf	3,5	;RP0=0, select bank0
  2789     0217  1303               	bcf	3,6	;RP1=0, select bank0
  2790     0218  1112               	bcf	18,2	;volatile
  2791     0219                     l5323:
  2792                           
  2793                           ;main.c: 160: 
  2794     0219  1683               	bsf	3,5	;RP0=1, select bank3
  2795     021A  1703               	bsf	3,6	;RP1=1, select bank3
  2796     021B  01AF               	clrf	main@control_flag^(0+384)
  2797     021C  0AAF               	incf	main@control_flag^(0+384),f
  2798                           
  2799                           ;main.c: 161:             case 0xAA:
  2800     021D  2B35               	goto	l5409
  2801     021E                     l5325:
  2802                           
  2803                           ;main.c: 164:                     clear_screen();
  2804     021E  30AA               	movlw	170
  2805     021F  1683               	bsf	3,5	;RP0=1, select bank3
  2806     0220  1703               	bsf	3,6	;RP1=1, select bank3
  2807     0221  00AF               	movwf	main@control_flag^(0+384)
  2808                           
  2809                           ;main.c: 165:                 }
  2810     0222  30BB               	movlw	187
  2811     0223  00AD               	movwf	main@reset_flag^(0+384)
  2812     0224                     l5327:
  2813                           
  2814                           ;main.c: 166: 
  2815     0224  01F2               	clrf	clcd_write@mode
  2816     0225  300C               	movlw	12
  2817     0226  160A  118A  25B7  120A  118A  	fcall	_clcd_write
  2818     022B                     l5329:
  2819                           
  2820                           ;main.c: 167: 
  2821     022B  30A5               	movlw	165
  2822     022C  1283               	bcf	3,5	;RP0=0, select bank0
  2823     022D  1303               	bcf	3,6	;RP1=0, select bank0
  2824     022E  00B5               	movwf	??_main
  2825     022F                     u5267:
  2826     022F  0BB5               	decfsz	??_main,f
  2827     0230  2A2F               	goto	u5267
  2828     0231  2A32               	nop2
  2829     0232                     l5331:
  2830                           
  2831                           ;main.c: 168:                 var = login_menu(key, reset_flag);
  2832     0232  1283               	bcf	3,5	;RP0=0, select bank0
  2833     0233  1303               	bcf	3,6	;RP1=0, select bank0
  2834     0234  1112               	bcf	18,2	;volatile
  2835                           
  2836                           ;main.c: 169: 
  2837     0235  28B1               	goto	l202
  2838     0236                     l5337:
  2839     0236  1683               	bsf	3,5	;RP0=1, select bank3
  2840     0237  1703               	bsf	3,6	;RP1=1, select bank3
  2841     0238  082D               	movf	main@reset_flag^(0+384),w
  2842     0239  1283               	bcf	3,5	;RP0=0, select bank0
  2843     023A  1303               	bcf	3,6	;RP1=0, select bank0
  2844     023B  00A5               	movwf	login@reset_flag
  2845     023C  1683               	bsf	3,5	;RP0=1, select bank3
  2846     023D  1703               	bsf	3,6	;RP1=1, select bank3
  2847     023E  0830               	movf	main@key^(0+384),w
  2848     023F  120A  118A  2516  120A  118A  	fcall	_login
  2849     0244  1283               	bcf	3,5	;RP0=0, select bank0
  2850     0245  1303               	bcf	3,6	;RP1=0, select bank0
  2851     0246  00B5               	movwf	??_main
  2852     0247  01B6               	clrf	??_main+1
  2853                           
  2854                           ; Switch on 2 bytes has been partitioned into a top level switch of size 1, and 1 sub-sw
      +                          itches
  2855                           ; Switch size 1, requested type "simple"
  2856                           ; Number of cases is 1, Range of values is 0 to 0
  2857                           ; switch strategies available:
  2858                           ; Name         Instructions Cycles
  2859                           ; simple_byte            4     3 (average)
  2860                           ; direct_byte           11     8 (fixed)
  2861                           ; jumptable            260     6 (fixed)
  2862                           ;	Chosen strategy is simple_byte
  2863     0248  0836               	movf	??_main+1,w
  2864     0249  3A00               	xorlw	0	; case 0
  2865     024A  1903               	skipnz
  2866     024B  2A4D               	goto	l5557
  2867     024C  2B35               	goto	l5409
  2868     024D                     l5557:
  2869                           
  2870                           ; Switch size 1, requested type "simple"
  2871                           ; Number of cases is 2, Range of values is 160 to 176
  2872                           ; switch strategies available:
  2873                           ; Name         Instructions Cycles
  2874                           ; simple_byte            7     4 (average)
  2875                           ; direct_byte           62    11 (fixed)
  2876                           ; jumptable            263     9 (fixed)
  2877                           ;	Chosen strategy is simple_byte
  2878     024D  0835               	movf	??_main,w
  2879     024E  3AA0               	xorlw	160	; case 160
  2880     024F  1903               	skipnz
  2881     0250  2A08               	goto	l5317
  2882     0251  3A10               	xorlw	16	; case 176
  2883     0252  1903               	skipnz
  2884     0253  2A1E               	goto	l5325
  2885     0254  2B35               	goto	l5409
  2886     0255                     l5339:
  2887                           
  2888                           ;main.c: 175:                 }
  2889     0255  0850               	movf	_first_time,w
  2890     0256  1D03               	btfss	3,2
  2891     0257  2A59               	goto	u5161
  2892     0258  2A5A               	goto	u5160
  2893     0259                     u5161:
  2894     0259  2A5F               	goto	l5343
  2895     025A                     u5160:
  2896     025A                     l5341:
  2897                           
  2898                           ;main.c: 176: ;main.c: 177:                 first_time = 1;
  2899     025A  160A  118A  2526  120A  118A  	fcall	_clear_screen
  2900     025F                     l5343:
  2901                           
  2902                           ;main.c: 181: 
  2903     025F  1683               	bsf	3,5	;RP0=1, select bank3
  2904     0260  1703               	bsf	3,6	;RP1=1, select bank3
  2905     0261  082D               	movf	main@reset_flag^(0+384),w
  2906     0262  1283               	bcf	3,5	;RP0=0, select bank0
  2907     0263  1303               	bcf	3,6	;RP1=0, select bank0
  2908     0264  00A5               	movwf	login_menu@reset_flag
  2909     0265  1683               	bsf	3,5	;RP0=1, select bank3
  2910     0266  1703               	bsf	3,6	;RP1=1, select bank3
  2911     0267  0830               	movf	main@key^(0+384),w
  2912     0268  120A  158A  273E  120A  118A  	fcall	_login_menu
  2913     026D  1683               	bsf	3,5	;RP0=1, select bank3
  2914     026E  1703               	bsf	3,6	;RP1=1, select bank3
  2915     026F  00A6               	movwf	main@var^(0+384)
  2916     0270                     l5345:
  2917                           
  2918                           ;main.c: 183:                 view_log(key);
  2919     0270  303E               	movlw	62
  2920     0271  0630               	xorwf	main@key^(0+384),w
  2921     0272  1D03               	btfss	3,2
  2922     0273  2A75               	goto	u5171
  2923     0274  2A76               	goto	u5170
  2924     0275                     u5171:
  2925     0275  2A7F               	goto	l5351
  2926     0276                     u5170:
  2927     0276                     l5347:
  2928                           
  2929                           ;main.c: 184: ;main.c: 186:                 {
  2930     0276  160A  118A  2526  120A  118A  	fcall	_clear_screen
  2931     027B                     l5349:
  2932                           
  2933                           ;main.c: 187:                     control_flag = 0xAA;;
  2934     027B  1683               	bsf	3,5	;RP0=1, select bank3
  2935     027C  1703               	bsf	3,6	;RP1=1, select bank3
  2936     027D  01AF               	clrf	main@control_flag^(0+384)
  2937     027E  0AAF               	incf	main@control_flag^(0+384),f
  2938     027F                     l5351:
  2939                           
  2940                           ;main.c: 190: 
  2941     027F  1283               	bcf	3,5	;RP0=0, select bank0
  2942     0280  1303               	bcf	3,6	;RP1=0, select bank0
  2943     0281  01D0               	clrf	_first_time
  2944     0282  0AD0               	incf	_first_time,f
  2945                           
  2946                           ;main.c: 191:             case 0xDD:
  2947     0283  2B35               	goto	l5409
  2948     0284                     l5353:
  2949                           
  2950                           ;main.c: 196:                     control_flag = 0xAA;;
  2951     0284  1683               	bsf	3,5	;RP0=1, select bank3
  2952     0285  1703               	bsf	3,6	;RP1=1, select bank3
  2953     0286  0830               	movf	main@key^(0+384),w
  2954     0287  120A  158A  2473  120A  118A  	fcall	_view_log
  2955     028C                     l5355:
  2956                           
  2957                           ;main.c: 198:                 }
  2958     028C  301F               	movlw	31
  2959     028D  1683               	bsf	3,5	;RP0=1, select bank3
  2960     028E  1703               	bsf	3,6	;RP1=1, select bank3
  2961     028F  0630               	xorwf	main@key^(0+384),w
  2962     0290  1D03               	btfss	3,2
  2963     0291  2A93               	goto	u5181
  2964     0292  2A94               	goto	u5180
  2965     0293                     u5181:
  2966     0293  2B35               	goto	l5409
  2967     0294                     u5180:
  2968     0294                     l5357:
  2969                           
  2970                           ;main.c: 199:                 break;;main.c: 200: 
  2971     0294  30AA               	movlw	170
  2972     0295  00AF               	movwf	main@control_flag^(0+384)
  2973     0296  2B35               	goto	l5409
  2974     0297                     l5359:
  2975                           
  2976                           ;main.c: 205:                     clcd_print("SENDING...", (0x80 + 2));
  2977     0297  120A  158A  208E  120A  118A  	fcall	_clear_log
  2978     029C                     l5361:
  2979                           
  2980                           ;main.c: 206:                     download_log();
  2981     029C  1683               	bsf	3,5	;RP0=1, select bank3
  2982     029D  1703               	bsf	3,6	;RP1=1, select bank3
  2983     029E  01A9               	clrf	main@d_flag^(0+384)
  2984     029F  0AA9               	incf	main@d_flag^(0+384),f
  2985     02A0                     l5363:
  2986                           
  2987                           ;main.c: 207:                     d_flag = 1;
  2988     02A0  301F               	movlw	31
  2989     02A1  0630               	xorwf	main@key^(0+384),w
  2990     02A2  1D03               	btfss	3,2
  2991     02A3  2AA5               	goto	u5191
  2992     02A4  2AA6               	goto	u5190
  2993     02A5                     u5191:
  2994     02A5  2B35               	goto	l5409
  2995     02A6                     u5190:
  2996     02A6                     l5365:
  2997                           
  2998                           ;main.c: 208:                     clear_screen();;main.c: 209:                 }
  2999     02A6  30AA               	movlw	170
  3000     02A7  00AF               	movwf	main@control_flag^(0+384)
  3001     02A8                     l5367:
  3002                           
  3003                           ;main.c: 210:                 else
  3004     02A8  160A  118A  2526  120A  118A  	fcall	_clear_screen
  3005     02AD  2B35               	goto	l5409
  3006     02AE                     l5369:
  3007                           
  3008                           ;main.c: 216:                 if(key == 0x1F)
  3009     02AE  1683               	bsf	3,5	;RP0=1, select bank3
  3010     02AF  1703               	bsf	3,6	;RP1=1, select bank3
  3011     02B0  0829               	movf	main@d_flag^(0+384),w
  3012     02B1  1D03               	btfss	3,2
  3013     02B2  2AB4               	goto	u5201
  3014     02B3  2AB5               	goto	u5200
  3015     02B4                     u5201:
  3016     02B4  2ACF               	goto	l5377
  3017     02B5                     u5200:
  3018     02B5                     l5371:
  3019                           
  3020                           ;main.c: 217:                 {;main.c: 218: 
  3021     02B5  30CA               	movlw	low (STR_10| (0+32768))
  3022     02B6  00F6               	movwf	clcd_print@str
  3023     02B7  3087               	movlw	high (STR_10| (0+32768))
  3024     02B8  00F7               	movwf	clcd_print@str+1
  3025     02B9  3082               	movlw	130
  3026     02BA  00F8               	movwf	clcd_print@addr
  3027     02BB  160A  118A  273D  120A  118A  	fcall	_clcd_print
  3028                           
  3029                           ;main.c: 219:                     control_flag = 0xAA;;
  3030     02C0  120A  158A  267C  120A  118A  	fcall	_download_log
  3031     02C5                     l5373:
  3032                           
  3033                           ;main.c: 220:                     clear_screen();
  3034     02C5  1683               	bsf	3,5	;RP0=1, select bank3
  3035     02C6  1703               	bsf	3,6	;RP1=1, select bank3
  3036     02C7  01A9               	clrf	main@d_flag^(0+384)
  3037     02C8  0AA9               	incf	main@d_flag^(0+384),f
  3038     02C9                     l5375:
  3039                           
  3040                           ;main.c: 221:                 }
  3041     02C9  160A  118A  2526  120A  118A  	fcall	_clear_screen
  3042                           
  3043                           ;main.c: 222:                 break;
  3044     02CE  2ADA               	goto	l5379
  3045     02CF                     l5377:
  3046                           
  3047                           ;main.c: 224:         case 0xFF:;main.c: 226:             set_time(key);
  3048     02CF  3008               	movlw	low (STR_11| (0+32768))
  3049     02D0  00F6               	movwf	clcd_print@str
  3050     02D1  3088               	movlw	high (STR_11| (0+32768))
  3051     02D2  00F7               	movwf	clcd_print@str+1
  3052     02D3  3082               	movlw	130
  3053     02D4  00F8               	movwf	clcd_print@addr
  3054     02D5  160A  118A  273D  120A  118A  	fcall	_clcd_print
  3055     02DA                     l5379:
  3056                           
  3057                           ;main.c: 229:             {
  3058     02DA  301F               	movlw	31
  3059     02DB  1683               	bsf	3,5	;RP0=1, select bank3
  3060     02DC  1703               	bsf	3,6	;RP1=1, select bank3
  3061     02DD  0630               	xorwf	main@key^(0+384),w
  3062     02DE  1D03               	btfss	3,2
  3063     02DF  2AE1               	goto	u5211
  3064     02E0  2AE2               	goto	u5210
  3065     02E1                     u5211:
  3066     02E1  2B35               	goto	l5409
  3067     02E2                     u5210:
  3068     02E2  2AA6               	goto	l5365
  3069     02E3                     l5385:
  3070                           
  3071                           ;main.c: 239: 
  3072     02E3  1683               	bsf	3,5	;RP0=1, select bank3
  3073     02E4  1703               	bsf	3,6	;RP1=1, select bank3
  3074     02E5  0830               	movf	main@key^(0+384),w
  3075     02E6  120A  118A  233D  120A  118A  	fcall	_set_time
  3076     02EB                     l5387:
  3077                           
  3078                           ;main.c: 241:             {
  3079     02EB  301F               	movlw	31
  3080     02EC  1683               	bsf	3,5	;RP0=1, select bank3
  3081     02ED  1703               	bsf	3,6	;RP1=1, select bank3
  3082     02EE  0630               	xorwf	main@key^(0+384),w
  3083     02EF  1D03               	btfss	3,2
  3084     02F0  2AF2               	goto	u5221
  3085     02F1  2AF3               	goto	u5220
  3086     02F2                     u5221:
  3087     02F2  2B35               	goto	l5409
  3088     02F3                     u5220:
  3089     02F3  2AA6               	goto	l5365
  3090     02F4                     l5393:
  3091                           
  3092                           ;main.c: 250:     }
  3093     02F4  1683               	bsf	3,5	;RP0=1, select bank3
  3094     02F5  1703               	bsf	3,6	;RP1=1, select bank3
  3095     02F6  0830               	movf	main@key^(0+384),w
  3096     02F7  120A  158A  251A  120A  118A  	fcall	_change_password
  3097     02FC                     l5395:
  3098     02FC  301F               	movlw	31
  3099     02FD  1683               	bsf	3,5	;RP0=1, select bank3
  3100     02FE  1703               	bsf	3,6	;RP1=1, select bank3
  3101     02FF  0630               	xorwf	main@key^(0+384),w
  3102     0300  1D03               	btfss	3,2
  3103     0301  2B03               	goto	u5231
  3104     0302  2B04               	goto	u5230
  3105     0303                     u5231:
  3106     0303  2B35               	goto	l5409
  3107     0304                     u5230:
  3108     0304                     l5397:
  3109     0304  30AA               	movlw	170
  3110     0305  00AF               	movwf	main@control_flag^(0+384)
  3111     0306                     l5399:
  3112     0306  160A  118A  2526  120A  118A  	fcall	_clear_screen
  3113     030B                     l5401:
  3114     030B  1283               	bcf	3,5	;RP0=0, select bank0
  3115     030C  1303               	bcf	3,6	;RP1=0, select bank0
  3116     030D  01D0               	clrf	_first_time
  3117     030E  0AD0               	incf	_first_time,f
  3118     030F                     l5403:
  3119     030F  1112               	bcf	18,2	;volatile
  3120     0310  2B35               	goto	l5409
  3121     0311                     l5407:
  3122     0311  082F               	movf	main@control_flag^(0+384),w
  3123     0312  1283               	bcf	3,5	;RP0=0, select bank0
  3124     0313  1303               	bcf	3,6	;RP1=0, select bank0
  3125     0314  00B5               	movwf	??_main
  3126     0315  01B6               	clrf	??_main+1
  3127                           
  3128                           ; Switch on 2 bytes has been partitioned into a top level switch of size 1, and 1 sub-sw
      +                          itches
  3129                           ; Switch size 1, requested type "simple"
  3130                           ; Number of cases is 1, Range of values is 0 to 0
  3131                           ; switch strategies available:
  3132                           ; Name         Instructions Cycles
  3133                           ; simple_byte            4     3 (average)
  3134                           ; direct_byte           11     8 (fixed)
  3135                           ; jumptable            260     6 (fixed)
  3136                           ;	Chosen strategy is simple_byte
  3137     0316  0836               	movf	??_main+1,w
  3138     0317  3A00               	xorlw	0	; case 0
  3139     0318  1903               	skipnz
  3140     0319  2B1B               	goto	l5559
  3141     031A  2B35               	goto	l5409
  3142     031B                     l5559:
  3143                           
  3144                           ; Switch size 1, requested type "simple"
  3145                           ; Number of cases is 8, Range of values is 1 to 255
  3146                           ; switch strategies available:
  3147                           ; Name         Instructions Cycles
  3148                           ; simple_byte           25    13 (average)
  3149                           ; jumptable            263     9 (fixed)
  3150                           ;	Chosen strategy is simple_byte
  3151     031B  0835               	movf	??_main,w
  3152     031C  3A01               	xorlw	1	; case 1
  3153     031D  1903               	skipnz
  3154     031E  29FB               	goto	l5315
  3155     031F  3A03               	xorlw	3	; case 2
  3156     0320  1903               	skipnz
  3157     0321  2A36               	goto	l5337
  3158     0322  3AA3               	xorlw	163	; case 161
  3159     0323  1903               	skipnz
  3160     0324  2AF4               	goto	l5393
  3161     0325  3A0B               	xorlw	11	; case 170
  3162     0326  1903               	skipnz
  3163     0327  2A55               	goto	l5339
  3164     0328  3A66               	xorlw	102	; case 204
  3165     0329  1903               	skipnz
  3166     032A  2A84               	goto	l5353
  3167     032B  3A11               	xorlw	17	; case 221
  3168     032C  1903               	skipnz
  3169     032D  2A97               	goto	l5359
  3170     032E  3A33               	xorlw	51	; case 238
  3171     032F  1903               	skipnz
  3172     0330  2AAE               	goto	l5369
  3173     0331  3A11               	xorlw	17	; case 255
  3174     0332  1903               	skipnz
  3175     0333  2AE3               	goto	l5385
  3176     0334  2B35               	goto	l5409
  3177     0335                     l5409:
  3178     0335  3020               	movlw	32
  3179     0336  1683               	bsf	3,5	;RP0=1, select bank3
  3180     0337  1703               	bsf	3,6	;RP1=1, select bank3
  3181     0338  00AD               	movwf	main@reset_flag^(0+384)
  3182     0339  28B1               	goto	l202
  3183     033A  120A  118A  280C   	ljmp	start
  3184     033D                     __end_of_main:
  3185                           
  3186                           	psect	text1
  3187     0C73                     __ptext1:	
  3188 ;; *************** function _view_log *****************
  3189 ;; Defined at:
  3190 ;;		line 269 in file "c_b_b.c"
  3191 ;; Parameters:    Size  Location     Type
  3192 ;;  key             1    wreg     unsigned char 
  3193 ;; Auto vars:     Size  Location     Type
  3194 ;;  key             1    5[BANK0 ] unsigned char 
  3195 ;; Return value:  Size  Location     Type
  3196 ;;                  1    wreg      void 
  3197 ;; Registers used:
  3198 ;;		wreg, fsr0l, fsr0h, status,2, status,0, btemp+1, pclath, cstack
  3199 ;; Tracked objects:
  3200 ;;		On entry : 0/0
  3201 ;;		On exit  : 0/0
  3202 ;;		Unchanged: 0/0
  3203 ;; Data sizes:     COMMON   BANK0   BANK1   BANK3   BANK2
  3204 ;;      Params:         0       0       0       0       0
  3205 ;;      Locals:         0       1       0       0       0
  3206 ;;      Temps:          0       0       0       0       0
  3207 ;;      Totals:         0       1       0       0       0
  3208 ;;Total ram usage:        1 bytes
  3209 ;; Hardware stack levels used: 1
  3210 ;; Hardware stack levels required when called: 6
  3211 ;; This function calls:
  3212 ;;		_clcd_print
  3213 ;;		_clcd_putch
  3214 ;;		_clear_screen
  3215 ;;		_read_event
  3216 ;; This function is called by:
  3217 ;;		_main
  3218 ;; This function uses a non-reentrant model
  3219 ;;
  3220                           
  3221     0C73                     _view_log:	
  3222                           ;psect for function _view_log
  3223                           
  3224                           
  3225                           ;incstack = 0
  3226                           ; Regs used in _view_log: [wreg-fsr0h+status,2+status,0+btemp+1+pclath+cstack]
  3227                           ;view_log@key stored from wreg
  3228     0C73  1283               	bcf	3,5	;RP0=0, select bank0
  3229     0C74  1303               	bcf	3,6	;RP1=0, select bank0
  3230     0C75  00A5               	movwf	view_log@key
  3231     0C76                     l4461:
  3232                           
  3233                           ;c_b_b.c: 269: void view_log(unsigned char key);c_b_b.c: 270: {;c_b_b.c: 273:     if(fir
      +                          st_time)
  3234     0C76  0850               	movf	_first_time,w
  3235     0C77  1903               	btfsc	3,2
  3236     0C78  2C7A               	goto	u4211
  3237     0C79  2C7B               	goto	u4210
  3238     0C7A                     u4211:
  3239     0C7A  2C83               	goto	l4467
  3240     0C7B                     u4210:
  3241     0C7B                     l4463:
  3242                           
  3243                           ;c_b_b.c: 274:     {;c_b_b.c: 275:         clear_screen();
  3244     0C7B  160A  118A  2526  120A  158A  	fcall	_clear_screen
  3245     0C80                     l4465:
  3246                           
  3247                           ;c_b_b.c: 276:         first_time = 0;
  3248     0C80  1283               	bcf	3,5	;RP0=0, select bank0
  3249     0C81  1303               	bcf	3,6	;RP1=0, select bank0
  3250     0C82  01D0               	clrf	_first_time
  3251     0C83                     l4467:
  3252                           
  3253                           ;c_b_b.c: 279:     if(clear_flag)
  3254     0C83  0840               	movf	_clear_flag,w
  3255     0C84  1903               	btfsc	3,2
  3256     0C85  2C87               	goto	u4221
  3257     0C86  2C88               	goto	u4220
  3258     0C87                     u4221:
  3259     0C87  2C94               	goto	l4471
  3260     0C88                     u4220:
  3261     0C88                     l4469:
  3262                           
  3263                           ;c_b_b.c: 280:     {;c_b_b.c: 281:         clcd_print("NO DATA", (0xC0 + 5));
  3264     0C88  30FB               	movlw	low (STR_24| (0+32768))
  3265     0C89  00F6               	movwf	clcd_print@str
  3266     0C8A  3087               	movlw	high (STR_24| (0+32768))
  3267     0C8B  00F7               	movwf	clcd_print@str+1
  3268     0C8C  30C5               	movlw	197
  3269     0C8D  00F8               	movwf	clcd_print@addr
  3270     0C8E  160A  118A  273D  120A  158A  	fcall	_clcd_print
  3271                           
  3272                           ;c_b_b.c: 282:     }
  3273     0C93  2D19               	goto	l375
  3274     0C94                     l4471:
  3275                           
  3276                           ;c_b_b.c: 284:     {;c_b_b.c: 285:         read_event(key);
  3277     0C94  0825               	movf	view_log@key,w
  3278     0C95  120A  158A  25C6  120A  158A  	fcall	_read_event
  3279     0C9A                     l4473:
  3280                           
  3281                           ;c_b_b.c: 286:         clcd_print("  TIME     EV SP", (0x80 + 0));
  3282     0C9A  3037               	movlw	low (STR_12| (0+32768))
  3283     0C9B  00F6               	movwf	clcd_print@str
  3284     0C9C  3087               	movlw	high (STR_12| (0+32768))
  3285     0C9D  00F7               	movwf	clcd_print@str+1
  3286     0C9E  3080               	movlw	128
  3287     0C9F  00F8               	movwf	clcd_print@addr
  3288     0CA0  160A  118A  273D  120A  158A  	fcall	_clcd_print
  3289     0CA5                     l4475:
  3290                           
  3291                           ;c_b_b.c: 287:         clcd_putch(data[0], (0xC0 + 0));
  3292     0CA5  30C0               	movlw	192
  3293     0CA6  00F9               	movwf	clcd_putch@addr
  3294     0CA7  1683               	bsf	3,5	;RP0=1, select bank1
  3295     0CA8  1303               	bcf	3,6	;RP1=0, select bank1
  3296     0CA9  0852               	movf	_data^(0+128),w
  3297     0CAA  160A  118A  256F  120A  158A  	fcall	_clcd_putch
  3298     0CAF                     l4477:
  3299                           
  3300                           ;c_b_b.c: 288:         clcd_putch(data[1], (0xC0 + 1));
  3301     0CAF  30C1               	movlw	193
  3302     0CB0  00F9               	movwf	clcd_putch@addr
  3303     0CB1  1683               	bsf	3,5	;RP0=1, select bank1
  3304     0CB2  1303               	bcf	3,6	;RP1=0, select bank1
  3305     0CB3  0853               	movf	(_data^(0+128)+1),w
  3306     0CB4  160A  118A  256F  120A  158A  	fcall	_clcd_putch
  3307     0CB9                     l4479:
  3308                           
  3309                           ;c_b_b.c: 289:         clcd_putch(':', (0xC0 + 2));
  3310     0CB9  30C2               	movlw	194
  3311     0CBA  00F9               	movwf	clcd_putch@addr
  3312     0CBB  303A               	movlw	58
  3313     0CBC  160A  118A  256F  120A  158A  	fcall	_clcd_putch
  3314     0CC1                     l4481:
  3315                           
  3316                           ;c_b_b.c: 290:         clcd_putch(data[2], (0xC0 + 3));
  3317     0CC1  30C3               	movlw	195
  3318     0CC2  00F9               	movwf	clcd_putch@addr
  3319     0CC3  1683               	bsf	3,5	;RP0=1, select bank1
  3320     0CC4  1303               	bcf	3,6	;RP1=0, select bank1
  3321     0CC5  0854               	movf	(_data^(0+128)+2),w
  3322     0CC6  160A  118A  256F  120A  158A  	fcall	_clcd_putch
  3323     0CCB                     l4483:
  3324                           
  3325                           ;c_b_b.c: 291:         clcd_putch(data[3], (0xC0 + 4));
  3326     0CCB  30C4               	movlw	196
  3327     0CCC  00F9               	movwf	clcd_putch@addr
  3328     0CCD  1683               	bsf	3,5	;RP0=1, select bank1
  3329     0CCE  1303               	bcf	3,6	;RP1=0, select bank1
  3330     0CCF  0855               	movf	(_data^(0+128)+3),w
  3331     0CD0  160A  118A  256F  120A  158A  	fcall	_clcd_putch
  3332     0CD5                     l4485:
  3333                           
  3334                           ;c_b_b.c: 292:         clcd_putch(':', (0xC0 + 5));
  3335     0CD5  30C5               	movlw	197
  3336     0CD6  00F9               	movwf	clcd_putch@addr
  3337     0CD7  303A               	movlw	58
  3338     0CD8  160A  118A  256F  120A  158A  	fcall	_clcd_putch
  3339     0CDD                     l4487:
  3340                           
  3341                           ;c_b_b.c: 293:         clcd_putch(data[4], (0xC0 + 6));
  3342     0CDD  30C6               	movlw	198
  3343     0CDE  00F9               	movwf	clcd_putch@addr
  3344     0CDF  1683               	bsf	3,5	;RP0=1, select bank1
  3345     0CE0  1303               	bcf	3,6	;RP1=0, select bank1
  3346     0CE1  0856               	movf	(_data^(0+128)+4),w
  3347     0CE2  160A  118A  256F  120A  158A  	fcall	_clcd_putch
  3348     0CE7                     l4489:
  3349                           
  3350                           ;c_b_b.c: 294:         clcd_putch(data[5], (0xC0 + 7));
  3351     0CE7  30C7               	movlw	199
  3352     0CE8  00F9               	movwf	clcd_putch@addr
  3353     0CE9  1683               	bsf	3,5	;RP0=1, select bank1
  3354     0CEA  1303               	bcf	3,6	;RP1=0, select bank1
  3355     0CEB  0857               	movf	(_data^(0+128)+5),w
  3356     0CEC  160A  118A  256F  120A  158A  	fcall	_clcd_putch
  3357     0CF1                     l4491:
  3358                           
  3359                           ;c_b_b.c: 296:         clcd_putch(data[6], (0xC0 + 11));
  3360     0CF1  30CB               	movlw	203
  3361     0CF2  00F9               	movwf	clcd_putch@addr
  3362     0CF3  1683               	bsf	3,5	;RP0=1, select bank1
  3363     0CF4  1303               	bcf	3,6	;RP1=0, select bank1
  3364     0CF5  0858               	movf	(_data^(0+128)+6),w
  3365     0CF6  160A  118A  256F  120A  158A  	fcall	_clcd_putch
  3366     0CFB                     l4493:
  3367                           
  3368                           ;c_b_b.c: 297:         clcd_putch(data[7], (0xC0 + 12));
  3369     0CFB  30CC               	movlw	204
  3370     0CFC  00F9               	movwf	clcd_putch@addr
  3371     0CFD  1683               	bsf	3,5	;RP0=1, select bank1
  3372     0CFE  1303               	bcf	3,6	;RP1=0, select bank1
  3373     0CFF  0859               	movf	(_data^(0+128)+7),w
  3374     0D00  160A  118A  256F  120A  158A  	fcall	_clcd_putch
  3375     0D05                     l4495:
  3376                           
  3377                           ;c_b_b.c: 299:         clcd_putch(data[8], (0xC0 + 14));
  3378     0D05  30CE               	movlw	206
  3379     0D06  00F9               	movwf	clcd_putch@addr
  3380     0D07  1683               	bsf	3,5	;RP0=1, select bank1
  3381     0D08  1303               	bcf	3,6	;RP1=0, select bank1
  3382     0D09  085A               	movf	(_data^(0+128)+8),w
  3383     0D0A  160A  118A  256F  120A  158A  	fcall	_clcd_putch
  3384     0D0F                     l4497:
  3385                           
  3386                           ;c_b_b.c: 300:         clcd_putch(data[9], (0xC0 + 15));
  3387     0D0F  30CF               	movlw	207
  3388     0D10  00F9               	movwf	clcd_putch@addr
  3389     0D11  1683               	bsf	3,5	;RP0=1, select bank1
  3390     0D12  1303               	bcf	3,6	;RP1=0, select bank1
  3391     0D13  085B               	movf	(_data^(0+128)+9),w
  3392     0D14  160A  118A  256F  120A  158A  	fcall	_clcd_putch
  3393     0D19                     l375:
  3394     0D19  0008               	return
  3395     0D1A                     __end_of_view_log:
  3396                           
  3397                           	psect	text2
  3398     0DC6                     __ptext2:	
  3399 ;; *************** function _read_event *****************
  3400 ;; Defined at:
  3401 ;;		line 235 in file "c_b_b.c"
  3402 ;; Parameters:    Size  Location     Type
  3403 ;;  key             1    wreg     unsigned char 
  3404 ;; Auto vars:     Size  Location     Type
  3405 ;;  key             1    7[COMMON] unsigned char 
  3406 ;;  addr            1    8[COMMON] unsigned char 
  3407 ;; Return value:  Size  Location     Type
  3408 ;;                  1    wreg      void 
  3409 ;; Registers used:
  3410 ;;		wreg, status,2, status,0, pclath, cstack
  3411 ;; Tracked objects:
  3412 ;;		On entry : 0/0
  3413 ;;		On exit  : 0/0
  3414 ;;		Unchanged: 0/0
  3415 ;; Data sizes:     COMMON   BANK0   BANK1   BANK3   BANK2
  3416 ;;      Params:         0       0       0       0       0
  3417 ;;      Locals:         2       0       0       0       0
  3418 ;;      Temps:          1       0       0       0       0
  3419 ;;      Totals:         3       0       0       0       0
  3420 ;;Total ram usage:        3 bytes
  3421 ;; Hardware stack levels used: 1
  3422 ;; Hardware stack levels required when called: 5
  3423 ;; This function calls:
  3424 ;;		___bmul
  3425 ;;		_eeprom_at24c04_random_read
  3426 ;; This function is called by:
  3427 ;;		_view_log
  3428 ;; This function uses a non-reentrant model
  3429 ;;
  3430                           
  3431     0DC6                     _read_event:	
  3432                           ;psect for function _read_event
  3433                           
  3434                           
  3435                           ;incstack = 0
  3436                           ; Regs used in _read_event: [wreg+status,2+status,0+pclath+cstack]
  3437                           ;read_event@key stored from wreg
  3438     0DC6  00F7               	movwf	read_event@key
  3439     0DC7                     l4095:
  3440     0DC7                     l4097:
  3441                           
  3442                           ;c_b_b.c: 240:     if(read_pos > 0 && key == 0x37)
  3443     0DC7  087A               	movf	_read_pos,w
  3444     0DC8  1903               	btfsc	3,2
  3445     0DC9  2DCB               	goto	u3711
  3446     0DCA  2DCC               	goto	u3710
  3447     0DCB                     u3711:
  3448     0DCB  2DD4               	goto	l367
  3449     0DCC                     u3710:
  3450     0DCC                     l4099:
  3451     0DCC  3037               	movlw	55
  3452     0DCD  0677               	xorwf	read_event@key,w
  3453     0DCE  1D03               	btfss	3,2
  3454     0DCF  2DD1               	goto	u3721
  3455     0DD0  2DD2               	goto	u3720
  3456     0DD1                     u3721:
  3457     0DD1  2DD4               	goto	l367
  3458     0DD2                     u3720:
  3459     0DD2                     l4101:
  3460                           
  3461                           ;c_b_b.c: 241:     {;c_b_b.c: 242:         read_pos--;
  3462     0DD2  3001               	movlw	1
  3463     0DD3  02FA               	subwf	_read_pos,f
  3464     0DD4                     l367:	
  3465                           ;c_b_b.c: 243:     }
  3466                           
  3467                           
  3468                           ;c_b_b.c: 244:     if(key == 0x2F && read_pos < pos)
  3469     0DD4  302F               	movlw	47
  3470     0DD5  0677               	xorwf	read_event@key,w
  3471     0DD6  1D03               	btfss	3,2
  3472     0DD7  2DD9               	goto	u3731
  3473     0DD8  2DDA               	goto	u3730
  3474     0DD9                     u3731:
  3475     0DD9  2DE6               	goto	l4107
  3476     0DDA                     u3730:
  3477     0DDA                     l4103:
  3478     0DDA  1283               	bcf	3,5	;RP0=0, select bank0
  3479     0DDB  1303               	bcf	3,6	;RP1=0, select bank0
  3480     0DDC  084E               	movf	_pos,w
  3481     0DDD  027A               	subwf	_read_pos,w
  3482     0DDE  1803               	skipnc
  3483     0DDF  2DE1               	goto	u3741
  3484     0DE0  2DE2               	goto	u3740
  3485     0DE1                     u3741:
  3486     0DE1  2DE6               	goto	l4107
  3487     0DE2                     u3740:
  3488     0DE2                     l4105:
  3489                           
  3490                           ;c_b_b.c: 245:     {;c_b_b.c: 246:         read_pos++;
  3491     0DE2  3001               	movlw	1
  3492     0DE3  00F6               	movwf	??_read_event
  3493     0DE4  0876               	movf	??_read_event,w
  3494     0DE5  07FA               	addwf	_read_pos,f
  3495     0DE6                     l4107:
  3496                           
  3497                           ;c_b_b.c: 249:     addr = read_pos * 10 + 5;
  3498     0DE6  300A               	movlw	10
  3499     0DE7  00F2               	movwf	___bmul@multiplicand
  3500     0DE8  087A               	movf	_read_pos,w
  3501     0DE9  160A  118A  2584  120A  158A  	fcall	___bmul
  3502     0DEE  3E05               	addlw	5
  3503     0DEF  00F8               	movwf	read_event@addr
  3504     0DF0                     l4109:
  3505                           
  3506                           ;c_b_b.c: 250:     data[0] = eeprom_at24c04_random_read(addr++);
  3507     0DF0  0878               	movf	read_event@addr,w
  3508     0DF1  160A  118A  26E4  120A  158A  	fcall	_eeprom_at24c04_random_read
  3509     0DF6  1683               	bsf	3,5	;RP0=1, select bank1
  3510     0DF7  1303               	bcf	3,6	;RP1=0, select bank1
  3511     0DF8  00D2               	movwf	_data^(0+128)
  3512     0DF9  3001               	movlw	1
  3513     0DFA  00F6               	movwf	??_read_event
  3514     0DFB  0876               	movf	??_read_event,w
  3515     0DFC  07F8               	addwf	read_event@addr,f
  3516     0DFD                     l4111:
  3517                           
  3518                           ;c_b_b.c: 251:     data[1] = eeprom_at24c04_random_read(addr++);
  3519     0DFD  0878               	movf	read_event@addr,w
  3520     0DFE  160A  118A  26E4  120A  158A  	fcall	_eeprom_at24c04_random_read
  3521     0E03  1683               	bsf	3,5	;RP0=1, select bank1
  3522     0E04  1303               	bcf	3,6	;RP1=0, select bank1
  3523     0E05  00D3               	movwf	(_data^(0+128)+1)
  3524     0E06                     l4113:
  3525     0E06  3001               	movlw	1
  3526     0E07  00F6               	movwf	??_read_event
  3527     0E08  0876               	movf	??_read_event,w
  3528     0E09  07F8               	addwf	read_event@addr,f
  3529                           
  3530                           ;c_b_b.c: 252:     data[2] = eeprom_at24c04_random_read(addr++);
  3531     0E0A  0878               	movf	read_event@addr,w
  3532     0E0B  160A  118A  26E4  120A  158A  	fcall	_eeprom_at24c04_random_read
  3533     0E10  1683               	bsf	3,5	;RP0=1, select bank1
  3534     0E11  1303               	bcf	3,6	;RP1=0, select bank1
  3535     0E12  00D4               	movwf	(_data^(0+128)+2)
  3536     0E13                     l4115:
  3537     0E13  3001               	movlw	1
  3538     0E14  00F6               	movwf	??_read_event
  3539     0E15  0876               	movf	??_read_event,w
  3540     0E16  07F8               	addwf	read_event@addr,f
  3541     0E17                     l4117:
  3542                           
  3543                           ;c_b_b.c: 253:     data[3] = eeprom_at24c04_random_read(addr++);
  3544     0E17  0878               	movf	read_event@addr,w
  3545     0E18  160A  118A  26E4  120A  158A  	fcall	_eeprom_at24c04_random_read
  3546     0E1D  1683               	bsf	3,5	;RP0=1, select bank1
  3547     0E1E  1303               	bcf	3,6	;RP1=0, select bank1
  3548     0E1F  00D5               	movwf	(_data^(0+128)+3)
  3549     0E20  3001               	movlw	1
  3550     0E21  00F6               	movwf	??_read_event
  3551     0E22  0876               	movf	??_read_event,w
  3552     0E23  07F8               	addwf	read_event@addr,f
  3553     0E24                     l4119:
  3554                           
  3555                           ;c_b_b.c: 254:     data[4] = eeprom_at24c04_random_read(addr++);
  3556     0E24  0878               	movf	read_event@addr,w
  3557     0E25  160A  118A  26E4  120A  158A  	fcall	_eeprom_at24c04_random_read
  3558     0E2A  1683               	bsf	3,5	;RP0=1, select bank1
  3559     0E2B  1303               	bcf	3,6	;RP1=0, select bank1
  3560     0E2C  00D6               	movwf	(_data^(0+128)+4)
  3561     0E2D                     l4121:
  3562     0E2D  3001               	movlw	1
  3563     0E2E  00F6               	movwf	??_read_event
  3564     0E2F  0876               	movf	??_read_event,w
  3565     0E30  07F8               	addwf	read_event@addr,f
  3566                           
  3567                           ;c_b_b.c: 255:     data[5] = eeprom_at24c04_random_read(addr++);
  3568     0E31  0878               	movf	read_event@addr,w
  3569     0E32  160A  118A  26E4  120A  158A  	fcall	_eeprom_at24c04_random_read
  3570     0E37  1683               	bsf	3,5	;RP0=1, select bank1
  3571     0E38  1303               	bcf	3,6	;RP1=0, select bank1
  3572     0E39  00D7               	movwf	(_data^(0+128)+5)
  3573     0E3A                     l4123:
  3574     0E3A  3001               	movlw	1
  3575     0E3B  00F6               	movwf	??_read_event
  3576     0E3C  0876               	movf	??_read_event,w
  3577     0E3D  07F8               	addwf	read_event@addr,f
  3578     0E3E                     l4125:
  3579                           
  3580                           ;c_b_b.c: 256:     data[6] = eeprom_at24c04_random_read(addr++);
  3581     0E3E  0878               	movf	read_event@addr,w
  3582     0E3F  160A  118A  26E4  120A  158A  	fcall	_eeprom_at24c04_random_read
  3583     0E44  1683               	bsf	3,5	;RP0=1, select bank1
  3584     0E45  1303               	bcf	3,6	;RP1=0, select bank1
  3585     0E46  00D8               	movwf	(_data^(0+128)+6)
  3586     0E47  3001               	movlw	1
  3587     0E48  00F6               	movwf	??_read_event
  3588     0E49  0876               	movf	??_read_event,w
  3589     0E4A  07F8               	addwf	read_event@addr,f
  3590     0E4B                     l4127:
  3591                           
  3592                           ;c_b_b.c: 257:     data[7] = eeprom_at24c04_random_read(addr++);
  3593     0E4B  0878               	movf	read_event@addr,w
  3594     0E4C  160A  118A  26E4  120A  158A  	fcall	_eeprom_at24c04_random_read
  3595     0E51  1683               	bsf	3,5	;RP0=1, select bank1
  3596     0E52  1303               	bcf	3,6	;RP1=0, select bank1
  3597     0E53  00D9               	movwf	(_data^(0+128)+7)
  3598     0E54                     l4129:
  3599     0E54  3001               	movlw	1
  3600     0E55  00F6               	movwf	??_read_event
  3601     0E56  0876               	movf	??_read_event,w
  3602     0E57  07F8               	addwf	read_event@addr,f
  3603                           
  3604                           ;c_b_b.c: 258:     data[8] = eeprom_at24c04_random_read(addr++);
  3605     0E58  0878               	movf	read_event@addr,w
  3606     0E59  160A  118A  26E4  120A  158A  	fcall	_eeprom_at24c04_random_read
  3607     0E5E  1683               	bsf	3,5	;RP0=1, select bank1
  3608     0E5F  1303               	bcf	3,6	;RP1=0, select bank1
  3609     0E60  00DA               	movwf	(_data^(0+128)+8)
  3610     0E61                     l4131:
  3611     0E61  3001               	movlw	1
  3612     0E62  00F6               	movwf	??_read_event
  3613     0E63  0876               	movf	??_read_event,w
  3614     0E64  07F8               	addwf	read_event@addr,f
  3615     0E65                     l4133:
  3616                           
  3617                           ;c_b_b.c: 259:     data[9] = eeprom_at24c04_random_read(addr++);
  3618     0E65  0878               	movf	read_event@addr,w
  3619     0E66  160A  118A  26E4  120A  158A  	fcall	_eeprom_at24c04_random_read
  3620     0E6B  1683               	bsf	3,5	;RP0=1, select bank1
  3621     0E6C  1303               	bcf	3,6	;RP1=0, select bank1
  3622     0E6D  00DB               	movwf	(_data^(0+128)+9)
  3623     0E6E  3001               	movlw	1
  3624     0E6F  00F6               	movwf	??_read_event
  3625     0E70  0876               	movf	??_read_event,w
  3626     0E71  07F8               	addwf	read_event@addr,f
  3627     0E72                     l4135:
  3628                           
  3629                           ;c_b_b.c: 260:     data[10] = '\0';
  3630     0E72  01DC               	clrf	(_data^(0+128)+10)
  3631     0E73                     l4137:
  3632     0E73  300A               	movlw	10
  3633     0E74  00F2               	movwf	___bmul@multiplicand
  3634     0E75  087A               	movf	_read_pos,w
  3635     0E76  160A  118A  2584  120A  158A  	fcall	___bmul
  3636     0E7B                     l369:
  3637     0E7B  0008               	return
  3638     0E7C                     __end_of_read_event:
  3639                           
  3640                           	psect	text3
  3641     161D                     __ptext3:	
  3642 ;; *************** function _strcpy *****************
  3643 ;; Defined at:
  3644 ;;		line 8 in file "/Applications/microchip/xc8/v2.41/pic/sources/c90/common/strcpy.c"
  3645 ;; Parameters:    Size  Location     Type
  3646 ;;  to              1    wreg     PTR unsigned char 
  3647 ;;		 -> main@event(3), 
  3648 ;;  from            2    2[COMMON] PTR const unsigned char 
  3649 ;;		 -> STR_8(3), STR_6(3), STR_5(3), STR_4(3), 
  3650 ;;		 -> STR_3(3), STR_2(3), STR_1(3), 
  3651 ;; Auto vars:     Size  Location     Type
  3652 ;;  to              1    6[COMMON] PTR unsigned char 
  3653 ;;		 -> main@event(3), 
  3654 ;;  cp              1    5[COMMON] PTR unsigned char 
  3655 ;;		 -> main@event(3), 
  3656 ;; Return value:  Size  Location     Type
  3657 ;;                  1    wreg      PTR unsigned char 
  3658 ;; Registers used:
  3659 ;;		wreg, fsr0l, fsr0h, status,2, status,0, btemp+1, pclath
  3660 ;; Tracked objects:
  3661 ;;		On entry : 0/0
  3662 ;;		On exit  : 0/0
  3663 ;;		Unchanged: 0/0
  3664 ;; Data sizes:     COMMON   BANK0   BANK1   BANK3   BANK2
  3665 ;;      Params:         2       0       0       0       0
  3666 ;;      Locals:         2       0       0       0       0
  3667 ;;      Temps:          1       0       0       0       0
  3668 ;;      Totals:         5       0       0       0       0
  3669 ;;Total ram usage:        5 bytes
  3670 ;; Hardware stack levels used: 2
  3671 ;; Hardware stack levels required when called: 1
  3672 ;; This function calls:
  3673 ;;		Nothing
  3674 ;; This function is called by:
  3675 ;;		_main
  3676 ;; This function uses a non-reentrant model
  3677 ;;
  3678                           
  3679     161D                     _strcpy:	
  3680                           ;psect for function _strcpy
  3681                           
  3682                           
  3683                           ;incstack = 0
  3684                           ; Regs used in _strcpy: [wreg-fsr0h+status,2+status,0+btemp+1+pclath]
  3685                           ;strcpy@to stored from wreg
  3686     161D  00F6               	movwf	strcpy@to
  3687     161E                     l4289:
  3688     161E  0876               	movf	strcpy@to,w
  3689     161F  00F5               	movwf	strcpy@cp
  3690     1620  2E2B               	goto	l4295
  3691     1621                     l4291:
  3692     1621  3001               	movlw	1
  3693     1622  00F4               	movwf	??_strcpy
  3694     1623  0874               	movf	??_strcpy,w
  3695     1624  07F5               	addwf	strcpy@cp,f
  3696     1625                     l4293:
  3697     1625  3001               	movlw	1
  3698     1626  07F2               	addwf	strcpy@from,f
  3699     1627  1803               	skipnc
  3700     1628  0AF3               	incf	strcpy@from+1,f
  3701     1629  3000               	movlw	0
  3702     162A  07F3               	addwf	strcpy@from+1,f
  3703     162B                     l4295:
  3704     162B  0873               	movf	strcpy@from+1,w
  3705     162C  1283               	bcf	3,5	;RP0=0, select bank0
  3706     162D  1303               	bcf	3,6	;RP1=0, select bank0
  3707     162E  00FF               	movwf	btemp+1
  3708     162F  0872               	movf	strcpy@from,w
  3709     1630  0084               	movwf	4
  3710     1631  160A  118A  2000  160A  118A  	fcall	stringtab
  3711     1636  00F4               	movwf	??_strcpy
  3712     1637  0875               	movf	strcpy@cp,w
  3713     1638  0084               	movwf	4
  3714     1639  0874               	movf	??_strcpy,w
  3715     163A  1783               	bsf	3,7	;select IRP bank2
  3716     163B  0080               	movwf	0
  3717     163C  0800               	movf	0,w
  3718     163D  1D03               	btfss	3,2
  3719     163E  2E40               	goto	u4001
  3720     163F  2E41               	goto	u4000
  3721     1640                     u4001:
  3722     1640  2E21               	goto	l4291
  3723     1641                     u4000:
  3724     1641                     l1118:
  3725     1641  0008               	return
  3726     1642                     __end_of_strcpy:
  3727                           
  3728                           	psect	text4
  3729     033D                     __ptext4:	
  3730 ;; *************** function _set_time *****************
  3731 ;; Defined at:
  3732 ;;		line 361 in file "c_b_b.c"
  3733 ;; Parameters:    Size  Location     Type
  3734 ;;  key             1    wreg     unsigned char 
  3735 ;; Auto vars:     Size  Location     Type
  3736 ;;  key             1    8[BANK0 ] unsigned char 
  3737 ;;  bar             2    6[BANK0 ] unsigned char [2]
  3738 ;;  change_flag     1    0        unsigned char 
  3739 ;; Return value:  Size  Location     Type
  3740 ;;                  1    wreg      void 
  3741 ;; Registers used:
  3742 ;;		wreg, fsr0l, fsr0h, status,2, status,0, btemp+1, pclath, cstack
  3743 ;; Tracked objects:
  3744 ;;		On entry : 0/0
  3745 ;;		On exit  : 0/0
  3746 ;;		Unchanged: 0/0
  3747 ;; Data sizes:     COMMON   BANK0   BANK1   BANK3   BANK2
  3748 ;;      Params:         0       0       0       0       0
  3749 ;;      Locals:         0       3       0       0       0
  3750 ;;      Temps:          0       1       0       0       0
  3751 ;;      Totals:         0       4       0       0       0
  3752 ;;Total ram usage:        4 bytes
  3753 ;; Hardware stack levels used: 1
  3754 ;; Hardware stack levels required when called: 6
  3755 ;; This function calls:
  3756 ;;		_clcd_print
  3757 ;;		_clcd_putch
  3758 ;;		_clear_screen
  3759 ;;		_display_time
  3760 ;;		_get_time
  3761 ;;		_write_ds1307
  3762 ;; This function is called by:
  3763 ;;		_main
  3764 ;; This function uses a non-reentrant model
  3765 ;;
  3766                           
  3767     033D                     _set_time:	
  3768                           ;psect for function _set_time
  3769                           
  3770                           
  3771                           ;incstack = 0
  3772                           ; Regs used in _set_time: [wreg-fsr0h+status,2+status,0+btemp+1+pclath+cstack]
  3773                           ;set_time@key stored from wreg
  3774     033D  1283               	bcf	3,5	;RP0=0, select bank0
  3775     033E  1303               	bcf	3,6	;RP1=0, select bank0
  3776     033F  00A8               	movwf	set_time@key
  3777     0340                     l4577:
  3778     0340                     l4579:
  3779                           
  3780                           ;c_b_b.c: 366:     bar[0] = 207 + '0';
  3781     0340  30FF               	movlw	255
  3782     0341  00A6               	movwf	set_time@bar
  3783     0342                     l4581:
  3784                           
  3785                           ;c_b_b.c: 367:     bar[1] = '\0';
  3786     0342  01A7               	clrf	set_time@bar+1
  3787     0343                     l4583:
  3788                           
  3789                           ;c_b_b.c: 370:     if(key == 0x3E)
  3790     0343  303E               	movlw	62
  3791     0344  0628               	xorwf	set_time@key,w
  3792     0345  1D03               	btfss	3,2
  3793     0346  2B48               	goto	u4261
  3794     0347  2B49               	goto	u4260
  3795     0348                     u4261:
  3796     0348  2B56               	goto	l4589
  3797     0349                     u4260:
  3798     0349                     l4585:
  3799                           
  3800                           ;c_b_b.c: 371:     {;c_b_b.c: 372:         run = !run;
  3801     0349  084C               	movf	set_time@run,w
  3802     034A  1903               	btfsc	3,2
  3803     034B  2B4D               	goto	u4271
  3804     034C  2B4F               	goto	u4270
  3805     034D                     u4271:
  3806     034D  3001               	movlw	1
  3807     034E  2B50               	goto	u4280
  3808     034F                     u4270:
  3809     034F  3000               	movlw	0
  3810     0350                     u4280:
  3811     0350  00CC               	movwf	set_time@run
  3812     0351                     l4587:
  3813                           
  3814                           ;c_b_b.c: 373:         clear_screen();
  3815     0351  160A  118A  2526  120A  118A  	fcall	_clear_screen
  3816     0356                     l4589:
  3817                           
  3818                           ;c_b_b.c: 376:     if(run)
  3819     0356  1283               	bcf	3,5	;RP0=0, select bank0
  3820     0357  1303               	bcf	3,6	;RP1=0, select bank0
  3821     0358  084C               	movf	set_time@run,w
  3822     0359  1903               	btfsc	3,2
  3823     035A  2B5C               	goto	u4291
  3824     035B  2B5D               	goto	u4290
  3825     035C                     u4291:
  3826     035C  2B77               	goto	l396
  3827     035D                     u4290:
  3828     035D                     l4591:
  3829                           
  3830                           ;c_b_b.c: 377:     {;c_b_b.c: 379:         clcd_print("SET TIME->RUN_MD", (0x80 + 0));
  3831     035D  3026               	movlw	low (STR_29| (0+32768))
  3832     035E  00F6               	movwf	clcd_print@str
  3833     035F  3087               	movlw	high (STR_29| (0+32768))
  3834     0360  00F7               	movwf	clcd_print@str+1
  3835     0361  3080               	movlw	128
  3836     0362  00F8               	movwf	clcd_print@addr
  3837     0363  160A  118A  273D  120A  118A  	fcall	_clcd_print
  3838     0368                     l4609:
  3839                           
  3840                           ;c_b_b.c: 395:         get_time();
  3841     0368  120A  158A  21DF  120A  118A  	fcall	_get_time
  3842     036D                     l4611:
  3843                           
  3844                           ;c_b_b.c: 396:         display_time();
  3845     036D  120A  158A  2192  120A  118A  	fcall	_display_time
  3846     0372                     l4613:
  3847                           
  3848                           ;c_b_b.c: 397:         TMR2ON = 0;
  3849     0372  1283               	bcf	3,5	;RP0=0, select bank0
  3850     0373  1303               	bcf	3,6	;RP1=0, select bank0
  3851     0374  1112               	bcf	18,2	;volatile
  3852     0375                     l4615:
  3853                           
  3854                           ;c_b_b.c: 398:         b_pos = 0;
  3855     0375  01BD               	clrf	set_time@b_pos
  3856     0376                     l4617:
  3857                           
  3858                           ;c_b_b.c: 402:     }
  3859     0376  2D15               	goto	l439
  3860     0377                     l396:	
  3861                           ;c_b_b.c: 403:     else
  3862                           
  3863                           
  3864                           ;c_b_b.c: 404:     {;c_b_b.c: 406:         TMR2ON = 1;
  3865     0377  1512               	bsf	18,2	;volatile
  3866     0378                     l4619:
  3867                           
  3868                           ;c_b_b.c: 407:         clcd_print("EDIT MODE", (0x80 + 3));
  3869     0378  30D5               	movlw	low (STR_30| (0+32768))
  3870     0379  00F6               	movwf	clcd_print@str
  3871     037A  3087               	movlw	high (STR_30| (0+32768))
  3872     037B  00F7               	movwf	clcd_print@str+1
  3873     037C  3083               	movlw	131
  3874     037D  00F8               	movwf	clcd_print@addr
  3875     037E  160A  118A  273D  120A  118A  	fcall	_clcd_print
  3876     0383                     l4621:
  3877                           
  3878                           ;c_b_b.c: 409:         if(key == 0x3D)
  3879     0383  303D               	movlw	61
  3880     0384  1283               	bcf	3,5	;RP0=0, select bank0
  3881     0385  1303               	bcf	3,6	;RP1=0, select bank0
  3882     0386  0628               	xorwf	set_time@key,w
  3883     0387  1D03               	btfss	3,2
  3884     0388  2B8A               	goto	u4301
  3885     0389  2B8B               	goto	u4300
  3886     038A                     u4301:
  3887     038A  2BA2               	goto	l399
  3888     038B                     u4300:
  3889     038B                     l4623:
  3890                           
  3891                           ;c_b_b.c: 410:         {;c_b_b.c: 411:             if(b_pos > 0)
  3892     038B  083D               	movf	set_time@b_pos,w
  3893     038C  1903               	btfsc	3,2
  3894     038D  2B8F               	goto	u4311
  3895     038E  2B90               	goto	u4310
  3896     038F                     u4311:
  3897     038F  2BA2               	goto	l399
  3898     0390                     u4310:
  3899     0390                     l4625:
  3900                           
  3901                           ;c_b_b.c: 412:             {;c_b_b.c: 413:                 if(b_pos == 3 || b_pos == 6)
  3902     0390  3003               	movlw	3
  3903     0391  063D               	xorwf	set_time@b_pos,w
  3904     0392  1903               	btfsc	3,2
  3905     0393  2B95               	goto	u4321
  3906     0394  2B96               	goto	u4320
  3907     0395                     u4321:
  3908     0395  2B9C               	goto	l4629
  3909     0396                     u4320:
  3910     0396                     l4627:
  3911     0396  3006               	movlw	6
  3912     0397  063D               	xorwf	set_time@b_pos,w
  3913     0398  1D03               	btfss	3,2
  3914     0399  2B9B               	goto	u4331
  3915     039A  2B9C               	goto	u4330
  3916     039B                     u4331:
  3917     039B  2BA0               	goto	l4631
  3918     039C                     u4330:
  3919     039C                     l4629:
  3920                           
  3921                           ;c_b_b.c: 414:                 {;c_b_b.c: 416:                     b_pos = b_pos - 2;
  3922     039C  083D               	movf	set_time@b_pos,w
  3923     039D  3EFE               	addlw	254
  3924     039E  00BD               	movwf	set_time@b_pos
  3925                           
  3926                           ;c_b_b.c: 417:                 }
  3927     039F  2BA2               	goto	l399
  3928     03A0                     l4631:
  3929                           
  3930                           ;c_b_b.c: 419:                 {;c_b_b.c: 421:                     b_pos--;
  3931     03A0  3001               	movlw	1
  3932     03A1  02BD               	subwf	set_time@b_pos,f
  3933     03A2                     l399:	
  3934                           ;c_b_b.c: 425:         }
  3935                           
  3936                           
  3937                           ;c_b_b.c: 426:         if(key == 0x3B)
  3938     03A2  303B               	movlw	59
  3939     03A3  0628               	xorwf	set_time@key,w
  3940     03A4  1D03               	btfss	3,2
  3941     03A5  2BA7               	goto	u4341
  3942     03A6  2BA8               	goto	u4340
  3943     03A7                     u4341:
  3944     03A7  2BC1               	goto	l405
  3945     03A8                     u4340:
  3946     03A8                     l4633:
  3947                           
  3948                           ;c_b_b.c: 427:         {;c_b_b.c: 429:             if(b_pos < 7)
  3949     03A8  3007               	movlw	7
  3950     03A9  023D               	subwf	set_time@b_pos,w
  3951     03AA  1803               	skipnc
  3952     03AB  2BAD               	goto	u4351
  3953     03AC  2BAE               	goto	u4350
  3954     03AD                     u4351:
  3955     03AD  2BC1               	goto	l405
  3956     03AE                     u4350:
  3957     03AE                     l4635:
  3958                           
  3959                           ;c_b_b.c: 430:             {;c_b_b.c: 431:                 if(b_pos == 1 || b_pos == 4)
  3960     03AE  033D               	decf	set_time@b_pos,w
  3961     03AF  1903               	btfsc	3,2
  3962     03B0  2BB2               	goto	u4361
  3963     03B1  2BB3               	goto	u4360
  3964     03B2                     u4361:
  3965     03B2  2BB9               	goto	l4639
  3966     03B3                     u4360:
  3967     03B3                     l4637:
  3968     03B3  3004               	movlw	4
  3969     03B4  063D               	xorwf	set_time@b_pos,w
  3970     03B5  1D03               	btfss	3,2
  3971     03B6  2BB8               	goto	u4371
  3972     03B7  2BB9               	goto	u4370
  3973     03B8                     u4371:
  3974     03B8  2BBD               	goto	l4641
  3975     03B9                     u4370:
  3976     03B9                     l4639:
  3977                           
  3978                           ;c_b_b.c: 432:                 {;c_b_b.c: 434:                     b_pos = b_pos + 2;
  3979     03B9  083D               	movf	set_time@b_pos,w
  3980     03BA  3E02               	addlw	2
  3981     03BB  00BD               	movwf	set_time@b_pos
  3982                           
  3983                           ;c_b_b.c: 435:                 }
  3984     03BC  2BC1               	goto	l405
  3985     03BD                     l4641:
  3986                           
  3987                           ;c_b_b.c: 437:                 {;c_b_b.c: 439:                     b_pos++;
  3988     03BD  3001               	movlw	1
  3989     03BE  00A5               	movwf	??_set_time
  3990     03BF  0825               	movf	??_set_time,w
  3991     03C0  07BD               	addwf	set_time@b_pos,f
  3992     03C1                     l405:	
  3993                           ;c_b_b.c: 442:         }
  3994                           
  3995                           
  3996                           ;c_b_b.c: 444:         if(key == 0x37)
  3997     03C1  3037               	movlw	55
  3998     03C2  0628               	xorwf	set_time@key,w
  3999     03C3  1D03               	btfss	3,2
  4000     03C4  2BC6               	goto	u4381
  4001     03C5  2BC7               	goto	u4380
  4002     03C6                     u4381:
  4003     03C6  2C35               	goto	l411
  4004     03C7                     u4380:
  4005     03C7                     l4643:
  4006                           
  4007                           ;c_b_b.c: 445:         {;c_b_b.c: 447:             if(b_pos < 2)
  4008     03C7  3002               	movlw	2
  4009     03C8  023D               	subwf	set_time@b_pos,w
  4010     03C9  1803               	skipnc
  4011     03CA  2BCC               	goto	u4391
  4012     03CB  2BCD               	goto	u4390
  4013     03CC                     u4391:
  4014     03CC  2BF5               	goto	l412
  4015     03CD                     u4390:
  4016     03CD                     l4645:
  4017                           
  4018                           ;c_b_b.c: 448:             {;c_b_b.c: 449:                 if(b_pos == 0)
  4019     03CD  083D               	movf	set_time@b_pos,w
  4020     03CE  1D03               	btfss	3,2
  4021     03CF  2BD1               	goto	u4401
  4022     03D0  2BD2               	goto	u4400
  4023     03D1                     u4401:
  4024     03D1  2BDD               	goto	l4653
  4025     03D2                     u4400:
  4026     03D2                     l4647:
  4027                           
  4028                           ;c_b_b.c: 450:                 {;c_b_b.c: 451:                     if(time[0] < 50)
  4029     03D2  3032               	movlw	50
  4030     03D3  0243               	subwf	_time,w
  4031     03D4  1803               	skipnc
  4032     03D5  2BD7               	goto	u4411
  4033     03D6  2BD8               	goto	u4410
  4034     03D7                     u4411:
  4035     03D7  2BF5               	goto	l412
  4036     03D8                     u4410:
  4037     03D8                     l4649:
  4038                           
  4039                           ;c_b_b.c: 452:                     {;c_b_b.c: 453:                         time[0]++;
  4040     03D8  3001               	movlw	1
  4041     03D9  00A5               	movwf	??_set_time
  4042     03DA  0825               	movf	??_set_time,w
  4043     03DB  07C3               	addwf	_time,f
  4044     03DC                     l4651:
  4045     03DC  2BF5               	goto	l412
  4046     03DD                     l4653:
  4047                           
  4048                           ;c_b_b.c: 458:                 {;c_b_b.c: 459:                     if(time[0] < 50)
  4049     03DD  3032               	movlw	50
  4050     03DE  0243               	subwf	_time,w
  4051     03DF  1803               	skipnc
  4052     03E0  2BE2               	goto	u4421
  4053     03E1  2BE3               	goto	u4420
  4054     03E2                     u4421:
  4055     03E2  2BEE               	goto	l4661
  4056     03E3                     u4420:
  4057     03E3                     l4655:
  4058                           
  4059                           ;c_b_b.c: 460:                     {;c_b_b.c: 461:                         if(time[1] < 
      +                          57)
  4060     03E3  3039               	movlw	57
  4061     03E4  0244               	subwf	_time+1,w
  4062     03E5  1803               	skipnc
  4063     03E6  2BE8               	goto	u4431
  4064     03E7  2BE9               	goto	u4430
  4065     03E8                     u4431:
  4066     03E8  2BF5               	goto	l412
  4067     03E9                     u4430:
  4068     03E9                     l4657:
  4069                           
  4070                           ;c_b_b.c: 462:                         {;c_b_b.c: 463:                             time[
      +                          1]++;
  4071     03E9  3001               	movlw	1
  4072     03EA  00A5               	movwf	??_set_time
  4073     03EB  0825               	movf	??_set_time,w
  4074     03EC  07C4               	addwf	_time+1,f
  4075     03ED  2BDC               	goto	l4651
  4076     03EE                     l4661:
  4077                           
  4078                           ;c_b_b.c: 468:                     {;c_b_b.c: 469:                         if(time[1] < 
      +                          51)
  4079     03EE  3033               	movlw	51
  4080     03EF  0244               	subwf	_time+1,w
  4081     03F0  1803               	skipnc
  4082     03F1  2BF3               	goto	u4441
  4083     03F2  2BF4               	goto	u4440
  4084     03F3                     u4441:
  4085     03F3  2BF5               	goto	l412
  4086     03F4                     u4440:
  4087     03F4  2BE9               	goto	l4657
  4088     03F5                     l412:	
  4089                           ;c_b_b.c: 476:             }
  4090                           
  4091                           
  4092                           ;c_b_b.c: 478:             if(b_pos == 3)
  4093     03F5  3003               	movlw	3
  4094     03F6  063D               	xorwf	set_time@b_pos,w
  4095     03F7  1D03               	btfss	3,2
  4096     03F8  2BFA               	goto	u4451
  4097     03F9  2BFB               	goto	u4450
  4098     03FA                     u4451:
  4099     03FA  2C05               	goto	l420
  4100     03FB                     u4450:
  4101     03FB                     l4667:
  4102                           
  4103                           ;c_b_b.c: 479:             {;c_b_b.c: 480:                 if(time[2] < 53)
  4104     03FB  3035               	movlw	53
  4105     03FC  0245               	subwf	_time+2,w
  4106     03FD  1803               	skipnc
  4107     03FE  2C00               	goto	u4461
  4108     03FF  2C01               	goto	u4460
  4109     0400                     u4461:
  4110     0400  2C05               	goto	l420
  4111     0401                     u4460:
  4112     0401                     l4669:
  4113                           
  4114                           ;c_b_b.c: 481:                 {;c_b_b.c: 482:                     time[2]++;
  4115     0401  3001               	movlw	1
  4116     0402  00A5               	movwf	??_set_time
  4117     0403  0825               	movf	??_set_time,w
  4118     0404  07C5               	addwf	_time+2,f
  4119     0405                     l4671:
  4120     0405                     l420:	
  4121                           ;c_b_b.c: 485:             }
  4122                           
  4123                           
  4124                           ;c_b_b.c: 487:             if(b_pos == 4)
  4125     0405  3004               	movlw	4
  4126     0406  063D               	xorwf	set_time@b_pos,w
  4127     0407  1D03               	btfss	3,2
  4128     0408  2C0A               	goto	u4471
  4129     0409  2C0B               	goto	u4470
  4130     040A                     u4471:
  4131     040A  2C15               	goto	l422
  4132     040B                     u4470:
  4133     040B                     l4673:
  4134                           
  4135                           ;c_b_b.c: 488:             {;c_b_b.c: 489:                 if(time[3] < 57)
  4136     040B  3039               	movlw	57
  4137     040C  0246               	subwf	_time+3,w
  4138     040D  1803               	skipnc
  4139     040E  2C10               	goto	u4481
  4140     040F  2C11               	goto	u4480
  4141     0410                     u4481:
  4142     0410  2C15               	goto	l422
  4143     0411                     u4480:
  4144     0411                     l4675:
  4145                           
  4146                           ;c_b_b.c: 490:                 {;c_b_b.c: 491:                     time[3]++;
  4147     0411  3001               	movlw	1
  4148     0412  00A5               	movwf	??_set_time
  4149     0413  0825               	movf	??_set_time,w
  4150     0414  07C6               	addwf	_time+3,f
  4151     0415                     l4677:
  4152     0415                     l422:	
  4153                           ;c_b_b.c: 494:             }
  4154                           
  4155                           
  4156                           ;c_b_b.c: 496:             if(b_pos == 6)
  4157     0415  3006               	movlw	6
  4158     0416  063D               	xorwf	set_time@b_pos,w
  4159     0417  1D03               	btfss	3,2
  4160     0418  2C1A               	goto	u4491
  4161     0419  2C1B               	goto	u4490
  4162     041A                     u4491:
  4163     041A  2C25               	goto	l424
  4164     041B                     u4490:
  4165     041B                     l4679:
  4166                           
  4167                           ;c_b_b.c: 497:             {;c_b_b.c: 498:                 if(time[4] < 53)
  4168     041B  3035               	movlw	53
  4169     041C  0247               	subwf	_time+4,w
  4170     041D  1803               	skipnc
  4171     041E  2C20               	goto	u4501
  4172     041F  2C21               	goto	u4500
  4173     0420                     u4501:
  4174     0420  2C25               	goto	l424
  4175     0421                     u4500:
  4176     0421                     l4681:
  4177                           
  4178                           ;c_b_b.c: 499:                 {;c_b_b.c: 500:                     time[4]++;
  4179     0421  3001               	movlw	1
  4180     0422  00A5               	movwf	??_set_time
  4181     0423  0825               	movf	??_set_time,w
  4182     0424  07C7               	addwf	_time+4,f
  4183     0425                     l4683:
  4184     0425                     l424:	
  4185                           ;c_b_b.c: 503:             }
  4186                           
  4187                           
  4188                           ;c_b_b.c: 505:             if(b_pos == 7)
  4189     0425  3007               	movlw	7
  4190     0426  063D               	xorwf	set_time@b_pos,w
  4191     0427  1D03               	btfss	3,2
  4192     0428  2C2A               	goto	u4511
  4193     0429  2C2B               	goto	u4510
  4194     042A                     u4511:
  4195     042A  2C35               	goto	l411
  4196     042B                     u4510:
  4197     042B                     l4685:
  4198                           
  4199                           ;c_b_b.c: 506:             {;c_b_b.c: 507:                 if(time[5] < 57)
  4200     042B  3039               	movlw	57
  4201     042C  0248               	subwf	_time+5,w
  4202     042D  1803               	skipnc
  4203     042E  2C30               	goto	u4521
  4204     042F  2C31               	goto	u4520
  4205     0430                     u4521:
  4206     0430  2C35               	goto	l411
  4207     0431                     u4520:
  4208     0431                     l4687:
  4209                           
  4210                           ;c_b_b.c: 508:                 {;c_b_b.c: 509:                     time[5]++;
  4211     0431  3001               	movlw	1
  4212     0432  00A5               	movwf	??_set_time
  4213     0433  0825               	movf	??_set_time,w
  4214     0434  07C8               	addwf	_time+5,f
  4215     0435                     l4689:
  4216     0435                     l411:	
  4217                           ;c_b_b.c: 513:         }
  4218                           
  4219                           
  4220                           ;c_b_b.c: 515:         if(key == 0x2F)
  4221     0435  302F               	movlw	47
  4222     0436  0628               	xorwf	set_time@key,w
  4223     0437  1D03               	btfss	3,2
  4224     0438  2C3A               	goto	u4531
  4225     0439  2C3B               	goto	u4530
  4226     043A                     u4531:
  4227     043A  2C80               	goto	l4717
  4228     043B                     u4530:
  4229     043B                     l4691:
  4230                           
  4231                           ;c_b_b.c: 516:         {;c_b_b.c: 518:             if(b_pos < 2)
  4232     043B  3002               	movlw	2
  4233     043C  023D               	subwf	set_time@b_pos,w
  4234     043D  1803               	skipnc
  4235     043E  2C40               	goto	u4541
  4236     043F  2C41               	goto	u4540
  4237     0440                     u4541:
  4238     0440  2C50               	goto	l4699
  4239     0441                     u4540:
  4240     0441                     l4693:
  4241                           
  4242                           ;c_b_b.c: 519:             {;c_b_b.c: 531:                 if(time[b_pos] > 48)
  4243     0441  083D               	movf	set_time@b_pos,w
  4244     0442  3E43               	addlw	(low (_time| 0))& (0+255)
  4245     0443  0084               	movwf	4
  4246     0444  3031               	movlw	49
  4247     0445  1383               	bcf	3,7	;select IRP bank0
  4248     0446  0200               	subwf	0,w
  4249     0447  1C03               	skipc
  4250     0448  2C4A               	goto	u4551
  4251     0449  2C4B               	goto	u4550
  4252     044A                     u4551:
  4253     044A  2C50               	goto	l4699
  4254     044B                     u4550:
  4255     044B                     l4695:
  4256                           
  4257                           ;c_b_b.c: 532:                 {;c_b_b.c: 533:                     time[b_pos]--;
  4258     044B  083D               	movf	set_time@b_pos,w
  4259     044C  3E43               	addlw	(low (_time| 0))& (0+255)
  4260     044D  0084               	movwf	4
  4261     044E  3001               	movlw	1
  4262     044F  0280               	subwf	0,f
  4263     0450                     l4697:
  4264     0450                     l4699:
  4265                           
  4266                           ;c_b_b.c: 538:             if(b_pos == 3 || b_pos == 4)
  4267     0450  3003               	movlw	3
  4268     0451  063D               	xorwf	set_time@b_pos,w
  4269     0452  1903               	btfsc	3,2
  4270     0453  2C55               	goto	u4561
  4271     0454  2C56               	goto	u4560
  4272     0455                     u4561:
  4273     0455  2C5C               	goto	l4703
  4274     0456                     u4560:
  4275     0456                     l4701:
  4276     0456  3004               	movlw	4
  4277     0457  063D               	xorwf	set_time@b_pos,w
  4278     0458  1D03               	btfss	3,2
  4279     0459  2C5B               	goto	u4571
  4280     045A  2C5C               	goto	u4570
  4281     045B                     u4571:
  4282     045B  2C6B               	goto	l4709
  4283     045C                     u4570:
  4284     045C                     l4703:
  4285                           
  4286                           ;c_b_b.c: 539:             {;c_b_b.c: 540:                 if(time[b_pos - 1] > 48)
  4287     045C  083D               	movf	set_time@b_pos,w
  4288     045D  3E42               	addlw	(low ((_time| 0+255)))& (0+255)
  4289     045E  0084               	movwf	4
  4290     045F  3031               	movlw	49
  4291     0460  1383               	bcf	3,7	;select IRP bank0
  4292     0461  0200               	subwf	0,w
  4293     0462  1C03               	skipc
  4294     0463  2C65               	goto	u4581
  4295     0464  2C66               	goto	u4580
  4296     0465                     u4581:
  4297     0465  2C6B               	goto	l4709
  4298     0466                     u4580:
  4299     0466                     l4705:
  4300                           
  4301                           ;c_b_b.c: 541:                 {;c_b_b.c: 542:                     time[b_pos - 1]--;
  4302     0466  083D               	movf	set_time@b_pos,w
  4303     0467  3E42               	addlw	(low ((_time| 0+255)))& (0+255)
  4304     0468  0084               	movwf	4
  4305     0469  3001               	movlw	1
  4306     046A  0280               	subwf	0,f
  4307     046B                     l4707:
  4308     046B                     l4709:
  4309                           
  4310                           ;c_b_b.c: 547:             if(b_pos > 5)
  4311     046B  3006               	movlw	6
  4312     046C  023D               	subwf	set_time@b_pos,w
  4313     046D  1C03               	skipc
  4314     046E  2C70               	goto	u4591
  4315     046F  2C71               	goto	u4590
  4316     0470                     u4591:
  4317     0470  2C80               	goto	l4717
  4318     0471                     u4590:
  4319     0471                     l4711:
  4320                           
  4321                           ;c_b_b.c: 548:             {;c_b_b.c: 549:                 if(time[b_pos - 2] > 48)
  4322     0471  083D               	movf	set_time@b_pos,w
  4323     0472  3E41               	addlw	(low ((_time| 0+254)))& (0+255)
  4324     0473  0084               	movwf	4
  4325     0474  3031               	movlw	49
  4326     0475  1383               	bcf	3,7	;select IRP bank0
  4327     0476  0200               	subwf	0,w
  4328     0477  1C03               	skipc
  4329     0478  2C7A               	goto	u4601
  4330     0479  2C7B               	goto	u4600
  4331     047A                     u4601:
  4332     047A  2C80               	goto	l4717
  4333     047B                     u4600:
  4334     047B                     l4713:
  4335                           
  4336                           ;c_b_b.c: 550:                 {;c_b_b.c: 551:                     time[b_pos - 2]--;
  4337     047B  083D               	movf	set_time@b_pos,w
  4338     047C  3E41               	addlw	(low ((_time| 0+254)))& (0+255)
  4339     047D  0084               	movwf	4
  4340     047E  3001               	movlw	1
  4341     047F  0280               	subwf	0,f
  4342     0480                     l4715:
  4343     0480                     l4717:
  4344                           
  4345                           ;c_b_b.c: 557:         if(blink)
  4346     0480  084F               	movf	_blink,w
  4347     0481  1903               	btfsc	3,2
  4348     0482  2C84               	goto	u4611
  4349     0483  2C85               	goto	u4610
  4350     0484                     u4611:
  4351     0484  2C8F               	goto	l4721
  4352     0485                     u4610:
  4353     0485                     l4719:
  4354                           
  4355                           ;c_b_b.c: 558:         {;c_b_b.c: 560:             clcd_putch(bar[0], (0xC0 + b_pos));
  4356     0485  083D               	movf	set_time@b_pos,w
  4357     0486  3EC0               	addlw	192
  4358     0487  00F9               	movwf	clcd_putch@addr
  4359     0488  0826               	movf	set_time@bar,w
  4360     0489  160A  118A  256F  120A  118A  	fcall	_clcd_putch
  4361                           
  4362                           ;c_b_b.c: 562:         }
  4363     048E  2D15               	goto	l439
  4364     048F                     l4721:
  4365                           
  4366                           ;c_b_b.c: 564:         {;c_b_b.c: 566:             clcd_putch(time[0], (0xC0 + 0));
  4367     048F  30C0               	movlw	192
  4368     0490  00F9               	movwf	clcd_putch@addr
  4369     0491  0843               	movf	_time,w
  4370     0492  160A  118A  256F  120A  118A  	fcall	_clcd_putch
  4371                           
  4372                           ;c_b_b.c: 567:             clcd_putch(time[1], (0xC0 + 1));
  4373     0497  30C1               	movlw	193
  4374     0498  00F9               	movwf	clcd_putch@addr
  4375     0499  1283               	bcf	3,5	;RP0=0, select bank0
  4376     049A  1303               	bcf	3,6	;RP1=0, select bank0
  4377     049B  0844               	movf	_time+1,w
  4378     049C  160A  118A  256F  120A  118A  	fcall	_clcd_putch
  4379                           
  4380                           ;c_b_b.c: 568:             clcd_putch(':', (0xC0 + 2));
  4381     04A1  30C2               	movlw	194
  4382     04A2  00F9               	movwf	clcd_putch@addr
  4383     04A3  303A               	movlw	58
  4384     04A4  160A  118A  256F  120A  118A  	fcall	_clcd_putch
  4385                           
  4386                           ;c_b_b.c: 569:             clcd_putch(time[2], (0xC0 + 3));
  4387     04A9  30C3               	movlw	195
  4388     04AA  00F9               	movwf	clcd_putch@addr
  4389     04AB  1283               	bcf	3,5	;RP0=0, select bank0
  4390     04AC  1303               	bcf	3,6	;RP1=0, select bank0
  4391     04AD  0845               	movf	_time+2,w
  4392     04AE  160A  118A  256F  120A  118A  	fcall	_clcd_putch
  4393                           
  4394                           ;c_b_b.c: 570:             clcd_putch(time[3], (0xC0 + 4));
  4395     04B3  30C4               	movlw	196
  4396     04B4  00F9               	movwf	clcd_putch@addr
  4397     04B5  1283               	bcf	3,5	;RP0=0, select bank0
  4398     04B6  1303               	bcf	3,6	;RP1=0, select bank0
  4399     04B7  0846               	movf	_time+3,w
  4400     04B8  160A  118A  256F  120A  118A  	fcall	_clcd_putch
  4401                           
  4402                           ;c_b_b.c: 571:             clcd_putch(':', (0xC0 + 5));
  4403     04BD  30C5               	movlw	197
  4404     04BE  00F9               	movwf	clcd_putch@addr
  4405     04BF  303A               	movlw	58
  4406     04C0  160A  118A  256F  120A  118A  	fcall	_clcd_putch
  4407                           
  4408                           ;c_b_b.c: 572:             clcd_putch(time[4], (0xC0 + 6));
  4409     04C5  30C6               	movlw	198
  4410     04C6  00F9               	movwf	clcd_putch@addr
  4411     04C7  1283               	bcf	3,5	;RP0=0, select bank0
  4412     04C8  1303               	bcf	3,6	;RP1=0, select bank0
  4413     04C9  0847               	movf	_time+4,w
  4414     04CA  160A  118A  256F  120A  118A  	fcall	_clcd_putch
  4415                           
  4416                           ;c_b_b.c: 573:             clcd_putch(time[5], (0xC0 + 7));
  4417     04CF  30C7               	movlw	199
  4418     04D0  00F9               	movwf	clcd_putch@addr
  4419     04D1  1283               	bcf	3,5	;RP0=0, select bank0
  4420     04D2  1303               	bcf	3,6	;RP1=0, select bank0
  4421     04D3  0848               	movf	_time+5,w
  4422     04D4  160A  118A  256F  120A  118A  	fcall	_clcd_putch
  4423                           
  4424                           ;c_b_b.c: 575:             clcd_putch(time[0], (0xC0 + 9));
  4425     04D9  30C9               	movlw	201
  4426     04DA  00F9               	movwf	clcd_putch@addr
  4427     04DB  1283               	bcf	3,5	;RP0=0, select bank0
  4428     04DC  1303               	bcf	3,6	;RP1=0, select bank0
  4429     04DD  0843               	movf	_time,w
  4430     04DE  160A  118A  256F  120A  118A  	fcall	_clcd_putch
  4431                           
  4432                           ;c_b_b.c: 576:             clcd_putch(time[1], (0xC0 + 10));
  4433     04E3  30CA               	movlw	202
  4434     04E4  00F9               	movwf	clcd_putch@addr
  4435     04E5  1283               	bcf	3,5	;RP0=0, select bank0
  4436     04E6  1303               	bcf	3,6	;RP1=0, select bank0
  4437     04E7  0844               	movf	_time+1,w
  4438     04E8  160A  118A  256F  120A  118A  	fcall	_clcd_putch
  4439                           
  4440                           ;c_b_b.c: 578:             clcd_putch(time[2], (0xC0 + 11));
  4441     04ED  30CB               	movlw	203
  4442     04EE  00F9               	movwf	clcd_putch@addr
  4443     04EF  1283               	bcf	3,5	;RP0=0, select bank0
  4444     04F0  1303               	bcf	3,6	;RP1=0, select bank0
  4445     04F1  0845               	movf	_time+2,w
  4446     04F2  160A  118A  256F  120A  118A  	fcall	_clcd_putch
  4447                           
  4448                           ;c_b_b.c: 579:             clcd_putch(time[3], (0xC0 + 12));
  4449     04F7  30CC               	movlw	204
  4450     04F8  00F9               	movwf	clcd_putch@addr
  4451     04F9  1283               	bcf	3,5	;RP0=0, select bank0
  4452     04FA  1303               	bcf	3,6	;RP1=0, select bank0
  4453     04FB  0846               	movf	_time+3,w
  4454     04FC  160A  118A  256F  120A  118A  	fcall	_clcd_putch
  4455                           
  4456                           ;c_b_b.c: 581:             clcd_putch(time[4], (0xC0 + 13));
  4457     0501  30CD               	movlw	205
  4458     0502  00F9               	movwf	clcd_putch@addr
  4459     0503  1283               	bcf	3,5	;RP0=0, select bank0
  4460     0504  1303               	bcf	3,6	;RP1=0, select bank0
  4461     0505  0847               	movf	_time+4,w
  4462     0506  160A  118A  256F  120A  118A  	fcall	_clcd_putch
  4463                           
  4464                           ;c_b_b.c: 582:             clcd_putch(time[5], (0xC0 + 14));
  4465     050B  30CE               	movlw	206
  4466     050C  00F9               	movwf	clcd_putch@addr
  4467     050D  1283               	bcf	3,5	;RP0=0, select bank0
  4468     050E  1303               	bcf	3,6	;RP1=0, select bank0
  4469     050F  0848               	movf	_time+5,w
  4470     0510  160A  118A  256F  120A  118A  	fcall	_clcd_putch
  4471     0515                     l439:
  4472     0515  0008               	return
  4473     0516                     __end_of_set_time:
  4474                           
  4475                           	psect	text5
  4476     168F                     __ptext5:	
  4477 ;; *************** function _read_digital_keypad *****************
  4478 ;; Defined at:
  4479 ;;		line 10 in file "digital_keypad.c"
  4480 ;; Parameters:    Size  Location     Type
  4481 ;;  mode            1    wreg     unsigned char 
  4482 ;; Auto vars:     Size  Location     Type
  4483 ;;  mode            1    3[COMMON] unsigned char 
  4484 ;; Return value:  Size  Location     Type
  4485 ;;                  1    wreg      unsigned char 
  4486 ;; Registers used:
  4487 ;;		wreg, status,2, status,0
  4488 ;; Tracked objects:
  4489 ;;		On entry : 0/0
  4490 ;;		On exit  : 0/0
  4491 ;;		Unchanged: 0/0
  4492 ;; Data sizes:     COMMON   BANK0   BANK1   BANK3   BANK2
  4493 ;;      Params:         0       0       0       0       0
  4494 ;;      Locals:         1       0       0       0       0
  4495 ;;      Temps:          1       0       0       0       0
  4496 ;;      Totals:         2       0       0       0       0
  4497 ;;Total ram usage:        2 bytes
  4498 ;; Hardware stack levels used: 1
  4499 ;; Hardware stack levels required when called: 1
  4500 ;; This function calls:
  4501 ;;		Nothing
  4502 ;; This function is called by:
  4503 ;;		_main
  4504 ;; This function uses a non-reentrant model
  4505 ;;
  4506                           
  4507     168F                     _read_digital_keypad:	
  4508                           ;psect for function _read_digital_keypad
  4509                           
  4510                           
  4511                           ;incstack = 0
  4512                           ; Regs used in _read_digital_keypad: [wreg+status,2+status,0]
  4513                           ;read_digital_keypad@mode stored from wreg
  4514     168F  00F3               	movwf	read_digital_keypad@mode
  4515     1690                     l4261:
  4516                           
  4517                           ;digital_keypad.c: 10: unsigned char read_digital_keypad(unsigned char mode);digital_key
      +                          pad.c: 11: {;digital_keypad.c: 12:     static unsigned char once = 1;;digital_keypad.c: 
      +                          14:     if (mode == 0)
  4518     1690  0873               	movf	read_digital_keypad@mode,w
  4519     1691  1D03               	btfss	3,2
  4520     1692  2E94               	goto	u3961
  4521     1693  2E95               	goto	u3960
  4522     1694                     u3961:
  4523     1694  2E9A               	goto	l4269
  4524     1695                     u3960:
  4525     1695                     l4263:
  4526                           
  4527                           ;digital_keypad.c: 15:     {;digital_keypad.c: 16:         return PORTB & 0x3F;
  4528     1695  1283               	bcf	3,5	;RP0=0, select bank0
  4529     1696  1303               	bcf	3,6	;RP1=0, select bank0
  4530     1697  0806               	movf	6,w	;volatile
  4531     1698  393F               	andlw	63
  4532     1699  2EB8               	goto	l466
  4533     169A                     l4269:
  4534                           
  4535                           ;digital_keypad.c: 19:     {;digital_keypad.c: 20:         if (((PORTB & 0x3F) != 0x3F) 
      +                          && once)
  4536     169A  303F               	movlw	63
  4537     169B  1283               	bcf	3,5	;RP0=0, select bank0
  4538     169C  1303               	bcf	3,6	;RP1=0, select bank0
  4539     169D  0506               	andwf	6,w	;volatile
  4540     169E  00F2               	movwf	??_read_digital_keypad
  4541     169F  303F               	movlw	63
  4542     16A0  0672               	xorwf	??_read_digital_keypad,w
  4543     16A1  1903               	btfsc	3,2
  4544     16A2  2EA4               	goto	u3971
  4545     16A3  2EA5               	goto	u3970
  4546     16A4                     u3971:
  4547     16A4  2EAC               	goto	l4281
  4548     16A5                     u3970:
  4549     16A5                     l4271:
  4550     16A5  084A               	movf	read_digital_keypad@once,w
  4551     16A6  1903               	btfsc	3,2
  4552     16A7  2EA9               	goto	u3981
  4553     16A8  2EAA               	goto	u3980
  4554     16A9                     u3981:
  4555     16A9  2EAC               	goto	l4281
  4556     16AA                     u3980:
  4557     16AA                     l4273:
  4558                           
  4559                           ;digital_keypad.c: 21:         {;digital_keypad.c: 22:             once = 0;
  4560     16AA  01CA               	clrf	read_digital_keypad@once
  4561     16AB  2E95               	goto	l4263
  4562     16AC                     l4281:
  4563     16AC  303F               	movlw	63
  4564     16AD  0506               	andwf	6,w	;volatile
  4565     16AE  00F2               	movwf	??_read_digital_keypad
  4566     16AF  303F               	movlw	63
  4567     16B0  0672               	xorwf	??_read_digital_keypad,w
  4568     16B1  1D03               	btfss	3,2
  4569     16B2  2EB4               	goto	u3991
  4570     16B3  2EB5               	goto	u3990
  4571     16B4                     u3991:
  4572     16B4  2EB7               	goto	l4285
  4573     16B5                     u3990:
  4574     16B5                     l4283:
  4575                           
  4576                           ;digital_keypad.c: 27:         {;digital_keypad.c: 28:             once = 1;
  4577     16B5  01CA               	clrf	read_digital_keypad@once
  4578     16B6  0ACA               	incf	read_digital_keypad@once,f
  4579     16B7                     l4285:
  4580                           
  4581                           ;digital_keypad.c: 32:     return 0x3F;
  4582     16B7  303F               	movlw	63
  4583     16B8                     l466:
  4584     16B8  0008               	return
  4585     16B9                     __end_of_read_digital_keypad:
  4586                           
  4587                           	psect	text6
  4588     1537                     __ptext6:	
  4589 ;; *************** function _read_adc *****************
  4590 ;; Defined at:
  4591 ;;		line 12 in file "adc.c"
  4592 ;; Parameters:    Size  Location     Type
  4593 ;;		None
  4594 ;; Auto vars:     Size  Location     Type
  4595 ;;  adc_reg_val     2    4[COMMON] unsigned short 
  4596 ;; Return value:  Size  Location     Type
  4597 ;;                  2    2[COMMON] unsigned short 
  4598 ;; Registers used:
  4599 ;;		wreg
  4600 ;; Tracked objects:
  4601 ;;		On entry : 0/0
  4602 ;;		On exit  : 0/0
  4603 ;;		Unchanged: 0/0
  4604 ;; Data sizes:     COMMON   BANK0   BANK1   BANK3   BANK2
  4605 ;;      Params:         2       0       0       0       0
  4606 ;;      Locals:         2       0       0       0       0
  4607 ;;      Temps:          0       0       0       0       0
  4608 ;;      Totals:         4       0       0       0       0
  4609 ;;Total ram usage:        4 bytes
  4610 ;; Hardware stack levels used: 1
  4611 ;; Hardware stack levels required when called: 1
  4612 ;; This function calls:
  4613 ;;		Nothing
  4614 ;; This function is called by:
  4615 ;;		_main
  4616 ;; This function uses a non-reentrant model
  4617 ;;
  4618                           
  4619     1537                     _read_adc:	
  4620                           ;psect for function _read_adc
  4621                           
  4622     1537                     l4229:	
  4623                           ;incstack = 0
  4624                           ; Regs used in _read_adc: [wreg]
  4625                           
  4626                           
  4627                           ;adc.c: 14:     unsigned short adc_reg_val;;adc.c: 17:     GO = 1;
  4628     1537  1283               	bcf	3,5	;RP0=0, select bank0
  4629     1538  1303               	bcf	3,6	;RP1=0, select bank0
  4630     1539  151F               	bsf	31,2	;volatile
  4631     153A                     l50:	
  4632                           ;adc.c: 20:     while (nDONE);
  4633                           
  4634     153A  191F               	btfsc	31,2	;volatile
  4635     153B  2D3D               	goto	u3951
  4636     153C  2D3E               	goto	u3950
  4637     153D                     u3951:
  4638     153D  2D3A               	goto	l50
  4639     153E                     u3950:
  4640     153E                     l4231:
  4641                           
  4642                           ;adc.c: 23:     adc_reg_val = (ADRESH << 8) | ADRESL;
  4643     153E  081E               	movf	30,w	;volatile
  4644     153F  00F5               	movwf	read_adc@adc_reg_val+1
  4645     1540  1683               	bsf	3,5	;RP0=1, select bank1
  4646     1541  1303               	bcf	3,6	;RP1=0, select bank1
  4647     1542  081E               	movf	30,w	;volatile
  4648     1543  00F4               	movwf	read_adc@adc_reg_val
  4649                           
  4650                           ;adc.c: 25:     return adc_reg_val;
  4651     1544  0875               	movf	read_adc@adc_reg_val+1,w
  4652     1545  00F3               	movwf	?_read_adc+1
  4653     1546  0874               	movf	read_adc@adc_reg_val,w
  4654     1547  00F2               	movwf	?_read_adc
  4655     1548                     l53:
  4656     1548  0008               	return
  4657     1549                     __end_of_read_adc:
  4658                           
  4659                           	psect	text7
  4660     0F3E                     __ptext7:	
  4661 ;; *************** function _login_menu *****************
  4662 ;; Defined at:
  4663 ;;		line 200 in file "c_b_b.c"
  4664 ;; Parameters:    Size  Location     Type
  4665 ;;  key             1    wreg     unsigned char 
  4666 ;;  reset_flag      1    5[BANK0 ] unsigned char 
  4667 ;; Auto vars:     Size  Location     Type
  4668 ;;  key             1   20[BANK0 ] unsigned char 
  4669 ;;  menu           10   10[BANK0 ] PTR unsigned char [5]
  4670 ;;		 -> STR_23(11), STR_22(9), STR_21(13), STR_20(10), 
  4671 ;;		 -> STR_19(9), 
  4672 ;; Return value:  Size  Location     Type
  4673 ;;                  1    wreg      unsigned char 
  4674 ;; Registers used:
  4675 ;;		wreg, fsr0l, fsr0h, status,2, status,0, btemp+1, pclath, cstack
  4676 ;; Tracked objects:
  4677 ;;		On entry : 0/0
  4678 ;;		On exit  : 0/0
  4679 ;;		Unchanged: 0/0
  4680 ;; Data sizes:     COMMON   BANK0   BANK1   BANK3   BANK2
  4681 ;;      Params:         0       1       0       0       0
  4682 ;;      Locals:         0      11       0       0       0
  4683 ;;      Temps:          0       4       0       0       0
  4684 ;;      Totals:         0      16       0       0       0
  4685 ;;Total ram usage:       16 bytes
  4686 ;; Hardware stack levels used: 1
  4687 ;; Hardware stack levels required when called: 3
  4688 ;; This function calls:
  4689 ;;		_clcd_print
  4690 ;;		_clcd_putch
  4691 ;;		_clear_screen
  4692 ;; This function is called by:
  4693 ;;		_main
  4694 ;; This function uses a non-reentrant model
  4695 ;;
  4696                           
  4697     0F3E                     _login_menu:	
  4698                           ;psect for function _login_menu
  4699                           
  4700                           
  4701                           ;incstack = 0
  4702                           ; Regs used in _login_menu: [wreg-fsr0h+status,2+status,0+btemp+1+pclath+cstack]
  4703                           ;login_menu@key stored from wreg
  4704     0F3E  1283               	bcf	3,5	;RP0=0, select bank0
  4705     0F3F  1303               	bcf	3,6	;RP1=0, select bank0
  4706     0F40  00B4               	movwf	login_menu@key
  4707     0F41                     l4419:
  4708                           
  4709                           ;c_b_b.c: 200: char login_menu(unsigned char key, unsigned char reset_flag);c_b_b.c: 201
      +                          : {;c_b_b.c: 202:     char *menu[] = {"View log", "Clear log", "Download log", "Set time
      +                          ", "Change pwd"};
  4710     0F41  302A               	movlw	login_menu@menu& (0+255)
  4711     0F42  0084               	movwf	4
  4712     0F43  30AC               	movlw	low login_menu@F990
  4713     0F44  00A6               	movwf	??_login_menu
  4714     0F45  0804               	movf	4,w
  4715     0F46  00A7               	movwf	??_login_menu+1
  4716     0F47  300A               	movlw	10
  4717     0F48  00A8               	movwf	??_login_menu+2
  4718     0F49                     u4130:
  4719     0F49  0826               	movf	??_login_menu,w
  4720     0F4A  0084               	movwf	4
  4721     0F4B  1383               	bcf	3,7	;select IRP bank1
  4722     0F4C  0800               	movf	0,w
  4723     0F4D  00A9               	movwf	??_login_menu+3
  4724     0F4E  0AA6               	incf	??_login_menu,f
  4725     0F4F  0827               	movf	??_login_menu+1,w
  4726     0F50  0084               	movwf	4
  4727     0F51  0829               	movf	??_login_menu+3,w
  4728     0F52  0080               	movwf	0
  4729     0F53  0AA7               	incf	??_login_menu+1,f
  4730     0F54  0BA8               	decfsz	??_login_menu+2,f
  4731     0F55  2F49               	goto	u4130
  4732     0F56                     l4421:
  4733                           
  4734                           ;c_b_b.c: 203:     static char menu_pos = 0;;c_b_b.c: 204:     if(reset_flag == 0xBB)
  4735     0F56  30BB               	movlw	187
  4736     0F57  0625               	xorwf	login_menu@reset_flag,w
  4737     0F58  1D03               	btfss	3,2
  4738     0F59  2F5B               	goto	u4141
  4739     0F5A  2F5C               	goto	u4140
  4740     0F5B                     u4141:
  4741     0F5B  2F62               	goto	l4427
  4742     0F5C                     u4140:
  4743     0F5C                     l4423:
  4744                           
  4745                           ;c_b_b.c: 205:     {;c_b_b.c: 206:         menu_pos = 0;
  4746     0F5C  01BE               	clrf	login_menu@menu_pos
  4747     0F5D                     l4425:
  4748                           
  4749                           ;c_b_b.c: 207:         clear_screen();
  4750     0F5D  160A  118A  2526  120A  158A  	fcall	_clear_screen
  4751     0F62                     l4427:
  4752                           
  4753                           ;c_b_b.c: 209:     if(key == 0x2F && menu_pos <= 3)
  4754     0F62  302F               	movlw	47
  4755     0F63  1283               	bcf	3,5	;RP0=0, select bank0
  4756     0F64  1303               	bcf	3,6	;RP1=0, select bank0
  4757     0F65  0634               	xorwf	login_menu@key,w
  4758     0F66  1D03               	btfss	3,2
  4759     0F67  2F69               	goto	u4151
  4760     0F68  2F6A               	goto	u4150
  4761     0F69                     u4151:
  4762     0F69  2F7A               	goto	l4435
  4763     0F6A                     u4150:
  4764     0F6A                     l4429:
  4765     0F6A  3004               	movlw	4
  4766     0F6B  023E               	subwf	login_menu@menu_pos,w
  4767     0F6C  1803               	skipnc
  4768     0F6D  2F6F               	goto	u4161
  4769     0F6E  2F70               	goto	u4160
  4770     0F6F                     u4161:
  4771     0F6F  2F7A               	goto	l4435
  4772     0F70                     u4160:
  4773     0F70                     l4431:
  4774                           
  4775                           ;c_b_b.c: 210:     {;c_b_b.c: 211:         menu_pos++;
  4776     0F70  3001               	movlw	1
  4777     0F71  00A6               	movwf	??_login_menu
  4778     0F72  0826               	movf	??_login_menu,w
  4779     0F73  07BE               	addwf	login_menu@menu_pos,f
  4780     0F74                     l4433:
  4781                           
  4782                           ;c_b_b.c: 212:         clear_screen();
  4783     0F74  160A  118A  2526  120A  158A  	fcall	_clear_screen
  4784                           
  4785                           ;c_b_b.c: 213:     }
  4786     0F79  2F88               	goto	l4443
  4787     0F7A                     l4435:
  4788     0F7A  3037               	movlw	55
  4789     0F7B  0634               	xorwf	login_menu@key,w
  4790     0F7C  1D03               	btfss	3,2
  4791     0F7D  2F7F               	goto	u4171
  4792     0F7E  2F80               	goto	u4170
  4793     0F7F                     u4171:
  4794     0F7F  2F88               	goto	l4443
  4795     0F80                     u4170:
  4796     0F80                     l4437:
  4797     0F80  083E               	movf	login_menu@menu_pos,w
  4798     0F81  1903               	btfsc	3,2
  4799     0F82  2F84               	goto	u4181
  4800     0F83  2F85               	goto	u4180
  4801     0F84                     u4181:
  4802     0F84  2F88               	goto	l4443
  4803     0F85                     u4180:
  4804     0F85                     l4439:
  4805                           
  4806                           ;c_b_b.c: 215:     {;c_b_b.c: 216:         menu_pos--;
  4807     0F85  3001               	movlw	1
  4808     0F86  02BE               	subwf	login_menu@menu_pos,f
  4809     0F87  2F74               	goto	l4433
  4810     0F88                     l4443:
  4811                           
  4812                           ;c_b_b.c: 219:     if(menu_pos < 4)
  4813     0F88  3004               	movlw	4
  4814     0F89  1283               	bcf	3,5	;RP0=0, select bank0
  4815     0F8A  1303               	bcf	3,6	;RP1=0, select bank0
  4816     0F8B  023E               	subwf	login_menu@menu_pos,w
  4817     0F8C  1803               	skipnc
  4818     0F8D  2F8F               	goto	u4191
  4819     0F8E  2F90               	goto	u4190
  4820     0F8F                     u4191:
  4821     0F8F  2FC3               	goto	l4451
  4822     0F90                     u4190:
  4823     0F90                     l4445:
  4824                           
  4825                           ;c_b_b.c: 220:     {;c_b_b.c: 221:         clcd_putch('*', (0x80 + 0));
  4826     0F90  3080               	movlw	128
  4827     0F91  00F9               	movwf	clcd_putch@addr
  4828     0F92  302A               	movlw	42
  4829     0F93  160A  118A  256F  120A  158A  	fcall	_clcd_putch
  4830     0F98                     l4447:
  4831                           
  4832                           ;c_b_b.c: 222:         clcd_print(menu[menu_pos], (0x80 + 2));
  4833     0F98  1283               	bcf	3,5	;RP0=0, select bank0
  4834     0F99  1303               	bcf	3,6	;RP1=0, select bank0
  4835     0F9A  083E               	movf	login_menu@menu_pos,w
  4836     0F9B  00A6               	movwf	??_login_menu
  4837     0F9C  0726               	addwf	??_login_menu,w
  4838     0F9D  3E2A               	addlw	(low (login_menu@menu| 0))& (0+255)
  4839     0F9E  0084               	movwf	4
  4840     0F9F  1383               	bcf	3,7	;select IRP bank0
  4841     0FA0  0800               	movf	0,w
  4842     0FA1  00F6               	movwf	clcd_print@str
  4843     0FA2  0A84               	incf	4,f
  4844     0FA3  0800               	movf	0,w
  4845     0FA4  0384               	decf	4,f
  4846     0FA5  00F7               	movwf	clcd_print@str+1
  4847     0FA6  3082               	movlw	130
  4848     0FA7  00F8               	movwf	clcd_print@addr
  4849     0FA8  160A  118A  273D  120A  158A  	fcall	_clcd_print
  4850     0FAD                     l4449:
  4851                           
  4852                           ;c_b_b.c: 223:         clcd_print(menu[menu_pos + 1], (0xC0 + 2));
  4853     0FAD  1283               	bcf	3,5	;RP0=0, select bank0
  4854     0FAE  1303               	bcf	3,6	;RP1=0, select bank0
  4855     0FAF  083E               	movf	login_menu@menu_pos,w
  4856     0FB0  00A6               	movwf	??_login_menu
  4857     0FB1  0726               	addwf	??_login_menu,w
  4858     0FB2  3E02               	addlw	2
  4859     0FB3  3E2A               	addlw	(low (login_menu@menu| 0))& (0+255)
  4860     0FB4  0084               	movwf	4
  4861     0FB5  1383               	bcf	3,7	;select IRP bank0
  4862     0FB6  0800               	movf	0,w
  4863     0FB7  00F6               	movwf	clcd_print@str
  4864     0FB8  0A84               	incf	4,f
  4865     0FB9  0800               	movf	0,w
  4866     0FBA  0384               	decf	4,f
  4867     0FBB  00F7               	movwf	clcd_print@str+1
  4868     0FBC  30C2               	movlw	194
  4869     0FBD  00F8               	movwf	clcd_print@addr
  4870     0FBE  160A  118A  273D  120A  158A  	fcall	_clcd_print
  4871     0FC3                     l4451:
  4872                           
  4873                           ;c_b_b.c: 225:     if(menu_pos == 4)
  4874     0FC3  3004               	movlw	4
  4875     0FC4  1283               	bcf	3,5	;RP0=0, select bank0
  4876     0FC5  1303               	bcf	3,6	;RP1=0, select bank0
  4877     0FC6  063E               	xorwf	login_menu@menu_pos,w
  4878     0FC7  1D03               	btfss	3,2
  4879     0FC8  2FCA               	goto	u4201
  4880     0FC9  2FCB               	goto	u4200
  4881     0FCA                     u4201:
  4882     0FCA  2FFC               	goto	l4457
  4883     0FCB                     u4200:
  4884     0FCB                     l4453:
  4885                           
  4886                           ;c_b_b.c: 226:     {;c_b_b.c: 227:         clcd_print(menu[menu_pos - 1], (0x80 + 2));
  4887     0FCB  083E               	movf	login_menu@menu_pos,w
  4888     0FCC  00A6               	movwf	??_login_menu
  4889     0FCD  0726               	addwf	??_login_menu,w
  4890     0FCE  3EFE               	addlw	254
  4891     0FCF  3E2A               	addlw	(low (login_menu@menu| 0))& (0+255)
  4892     0FD0  0084               	movwf	4
  4893     0FD1  1383               	bcf	3,7	;select IRP bank0
  4894     0FD2  0800               	movf	0,w
  4895     0FD3  00F6               	movwf	clcd_print@str
  4896     0FD4  0A84               	incf	4,f
  4897     0FD5  0800               	movf	0,w
  4898     0FD6  0384               	decf	4,f
  4899     0FD7  00F7               	movwf	clcd_print@str+1
  4900     0FD8  3082               	movlw	130
  4901     0FD9  00F8               	movwf	clcd_print@addr
  4902     0FDA  160A  118A  273D  120A  158A  	fcall	_clcd_print
  4903                           
  4904                           ;c_b_b.c: 228:         clcd_print(menu[menu_pos], (0xC0 + 2));
  4905     0FDF  1283               	bcf	3,5	;RP0=0, select bank0
  4906     0FE0  1303               	bcf	3,6	;RP1=0, select bank0
  4907     0FE1  083E               	movf	login_menu@menu_pos,w
  4908     0FE2  00A6               	movwf	??_login_menu
  4909     0FE3  0726               	addwf	??_login_menu,w
  4910     0FE4  3E2A               	addlw	(low (login_menu@menu| 0))& (0+255)
  4911     0FE5  0084               	movwf	4
  4912     0FE6  1383               	bcf	3,7	;select IRP bank0
  4913     0FE7  0800               	movf	0,w
  4914     0FE8  00F6               	movwf	clcd_print@str
  4915     0FE9  0A84               	incf	4,f
  4916     0FEA  0800               	movf	0,w
  4917     0FEB  0384               	decf	4,f
  4918     0FEC  00F7               	movwf	clcd_print@str+1
  4919     0FED  30C2               	movlw	194
  4920     0FEE  00F8               	movwf	clcd_print@addr
  4921     0FEF  160A  118A  273D  120A  158A  	fcall	_clcd_print
  4922     0FF4                     l4455:
  4923                           
  4924                           ;c_b_b.c: 229:         clcd_putch('*', (0xC0 + 0));
  4925     0FF4  30C0               	movlw	192
  4926     0FF5  00F9               	movwf	clcd_putch@addr
  4927     0FF6  302A               	movlw	42
  4928     0FF7  160A  118A  256F  120A  158A  	fcall	_clcd_putch
  4929     0FFC                     l4457:
  4930                           
  4931                           ;c_b_b.c: 232:     return menu_pos;
  4932     0FFC  1283               	bcf	3,5	;RP0=0, select bank0
  4933     0FFD  1303               	bcf	3,6	;RP1=0, select bank0
  4934     0FFE  083E               	movf	login_menu@menu_pos,w
  4935     0FFF                     l364:
  4936     0FFF  0008               	return
  4937     1000                     __end_of_login_menu:
  4938                           
  4939                           	psect	text8
  4940     0516                     __ptext8:	
  4941 ;; *************** function _login *****************
  4942 ;; Defined at:
  4943 ;;		line 109 in file "c_b_b.c"
  4944 ;; Parameters:    Size  Location     Type
  4945 ;;  key             1    wreg     unsigned char 
  4946 ;;  reset_flag      1    5[BANK0 ] unsigned char 
  4947 ;; Auto vars:     Size  Location     Type
  4948 ;;  key             1   17[BANK0 ] unsigned char 
  4949 ;;  j               2   18[BANK0 ] int 
  4950 ;;  npassword       4   13[BANK0 ] unsigned char [4]
  4951 ;;  spassword       4    9[BANK0 ] unsigned char [4]
  4952 ;; Return value:  Size  Location     Type
  4953 ;;                  1    wreg      unsigned char 
  4954 ;; Registers used:
  4955 ;;		wreg, fsr0l, fsr0h, status,2, status,0, btemp+1, pclath, cstack
  4956 ;; Tracked objects:
  4957 ;;		On entry : 0/0
  4958 ;;		On exit  : 0/0
  4959 ;;		Unchanged: 0/0
  4960 ;; Data sizes:     COMMON   BANK0   BANK1   BANK3   BANK2
  4961 ;;      Params:         0       1       0       0       0
  4962 ;;      Locals:         0      11       0       0       0
  4963 ;;      Temps:          0       3       0       0       0
  4964 ;;      Totals:         0      15       0       0       0
  4965 ;;Total ram usage:       15 bytes
  4966 ;; Hardware stack levels used: 1
  4967 ;; Hardware stack levels required when called: 5
  4968 ;; This function calls:
  4969 ;;		___awdiv
  4970 ;;		___awmod
  4971 ;;		_clcd_print
  4972 ;;		_clcd_putch
  4973 ;;		_clcd_write
  4974 ;;		_clear_screen
  4975 ;;		_eeprom_at24c04_random_read
  4976 ;;		_strncmp
  4977 ;; This function is called by:
  4978 ;;		_main
  4979 ;; This function uses a non-reentrant model
  4980 ;;
  4981                           
  4982     0516                     _login:	
  4983                           ;psect for function _login
  4984                           
  4985                           
  4986                           ;incstack = 0
  4987                           ; Regs used in _login: [wreg-fsr0h+status,2+status,0+btemp+1+pclath+cstack]
  4988                           ;login@key stored from wreg
  4989     0516  1283               	bcf	3,5	;RP0=0, select bank0
  4990     0517  1303               	bcf	3,6	;RP1=0, select bank0
  4991     0518  00B1               	movwf	login@key
  4992     0519                     l4309:
  4993                           
  4994                           ;c_b_b.c: 109: unsigned char login(unsigned char key, unsigned char reset_flag);c_b_b.c:
      +                           110: {;c_b_b.c: 111:     static int attempt = 3;;c_b_b.c: 112:     char npassword[4];;c
      +                          _b_b.c: 113:     static char i = 0;;c_b_b.c: 114:     char spassword[4];;c_b_b.c: 115:  
      +                             if(reset_flag == 0x10)
  4995     0519  3010               	movlw	16
  4996     051A  0625               	xorwf	login@reset_flag,w
  4997     051B  1D03               	btfss	3,2
  4998     051C  2D1E               	goto	u4021
  4999     051D  2D1F               	goto	u4020
  5000     051E                     u4021:
  5001     051E  2D2F               	goto	l4321
  5002     051F                     u4020:
  5003     051F                     l4311:
  5004                           
  5005                           ;c_b_b.c: 116:     {;c_b_b.c: 117:         attempt = 3;
  5006     051F  3003               	movlw	3
  5007     0520  1683               	bsf	3,5	;RP0=1, select bank1
  5008     0521  1303               	bcf	3,6	;RP1=0, select bank1
  5009     0522  00C1               	movwf	login@attempt^(0+128)
  5010     0523  3000               	movlw	0
  5011     0524  00C2               	movwf	(login@attempt^(0+128)+1)
  5012     0525                     l4313:
  5013                           
  5014                           ;c_b_b.c: 118:         npassword[0] = '\0';
  5015     0525  1283               	bcf	3,5	;RP0=0, select bank0
  5016     0526  1303               	bcf	3,6	;RP1=0, select bank0
  5017     0527  01AD               	clrf	login@npassword
  5018     0528                     l4315:
  5019                           
  5020                           ;c_b_b.c: 119:         npassword[1] = '\0';
  5021     0528  01AE               	clrf	login@npassword+1
  5022     0529                     l4317:
  5023                           
  5024                           ;c_b_b.c: 120:         npassword[2] = '\0';
  5025     0529  01AF               	clrf	login@npassword+2
  5026     052A                     l4319:
  5027                           
  5028                           ;c_b_b.c: 121:         npassword[3] = '\0';
  5029     052A  01B0               	clrf	login@npassword+3
  5030                           
  5031                           ;c_b_b.c: 122:         key = 0xFF;
  5032     052B  30FF               	movlw	255
  5033     052C  00B1               	movwf	login@key
  5034                           
  5035                           ;c_b_b.c: 123:         return_time = 5;
  5036     052D  3005               	movlw	5
  5037     052E  00CD               	movwf	_return_time
  5038     052F                     l4321:
  5039                           
  5040                           ;c_b_b.c: 126:     if(key == 0x37 && i < 4)
  5041     052F  3037               	movlw	55
  5042     0530  0631               	xorwf	login@key,w
  5043     0531  1D03               	btfss	3,2
  5044     0532  2D34               	goto	u4031
  5045     0533  2D35               	goto	u4030
  5046     0534                     u4031:
  5047     0534  2D53               	goto	l4333
  5048     0535                     u4030:
  5049     0535                     l4323:
  5050     0535  3004               	movlw	4
  5051     0536  023F               	subwf	login@i,w
  5052     0537  1803               	skipnc
  5053     0538  2D3A               	goto	u4041
  5054     0539  2D3B               	goto	u4040
  5055     053A                     u4041:
  5056     053A  2D53               	goto	l4333
  5057     053B                     u4040:
  5058     053B                     l4325:
  5059                           
  5060                           ;c_b_b.c: 127:     {;c_b_b.c: 128:         npassword[i] = '1';
  5061     053B  083F               	movf	login@i,w
  5062     053C  3E2D               	addlw	(low (login@npassword| 0))& (0+255)
  5063     053D  0084               	movwf	4
  5064     053E  3031               	movlw	49
  5065     053F  1383               	bcf	3,7	;select IRP bank0
  5066     0540  0080               	movwf	0
  5067     0541                     l4327:
  5068                           
  5069                           ;c_b_b.c: 129:         clcd_putch('*', (0xC0 + 6 + i));
  5070     0541  083F               	movf	login@i,w
  5071     0542  3EC6               	addlw	198
  5072     0543  00F9               	movwf	clcd_putch@addr
  5073     0544  302A               	movlw	42
  5074     0545  160A  118A  256F  120A  118A  	fcall	_clcd_putch
  5075     054A                     l4329:
  5076                           
  5077                           ;c_b_b.c: 130:         i++;
  5078     054A  3001               	movlw	1
  5079     054B  1283               	bcf	3,5	;RP0=0, select bank0
  5080     054C  1303               	bcf	3,6	;RP1=0, select bank0
  5081     054D  00A6               	movwf	??_login
  5082     054E  0826               	movf	??_login,w
  5083     054F  07BF               	addwf	login@i,f
  5084     0550                     l4331:
  5085                           
  5086                           ;c_b_b.c: 131:         return_time = 5;
  5087     0550  3005               	movlw	5
  5088     0551  00CD               	movwf	_return_time
  5089                           
  5090                           ;c_b_b.c: 132:     }
  5091     0552  2D6F               	goto	l4345
  5092     0553                     l4333:
  5093     0553  302F               	movlw	47
  5094     0554  0631               	xorwf	login@key,w
  5095     0555  1D03               	btfss	3,2
  5096     0556  2D58               	goto	u4051
  5097     0557  2D59               	goto	u4050
  5098     0558                     u4051:
  5099     0558  2D6F               	goto	l4345
  5100     0559                     u4050:
  5101     0559                     l4335:
  5102     0559  3004               	movlw	4
  5103     055A  023F               	subwf	login@i,w
  5104     055B  1803               	skipnc
  5105     055C  2D5E               	goto	u4061
  5106     055D  2D5F               	goto	u4060
  5107     055E                     u4061:
  5108     055E  2D6F               	goto	l4345
  5109     055F                     u4060:
  5110     055F                     l4337:
  5111                           
  5112                           ;c_b_b.c: 134:     {;c_b_b.c: 135:         npassword[i] = '0';
  5113     055F  083F               	movf	login@i,w
  5114     0560  3E2D               	addlw	(low (login@npassword| 0))& (0+255)
  5115     0561  0084               	movwf	4
  5116     0562  3030               	movlw	48
  5117     0563  1383               	bcf	3,7	;select IRP bank0
  5118     0564  0080               	movwf	0
  5119     0565                     l4339:
  5120                           
  5121                           ;c_b_b.c: 136:         clcd_putch('*', (0xC0 + 6 + i));
  5122     0565  083F               	movf	login@i,w
  5123     0566  3EC6               	addlw	198
  5124     0567  00F9               	movwf	clcd_putch@addr
  5125     0568  302A               	movlw	42
  5126     0569  160A  118A  256F  120A  118A  	fcall	_clcd_putch
  5127     056E  2D4A               	goto	l4329
  5128     056F                     l4345:
  5129                           
  5130                           ;c_b_b.c: 140:     if(i == 4)
  5131     056F  3004               	movlw	4
  5132     0570  063F               	xorwf	login@i,w
  5133     0571  1D03               	btfss	3,2
  5134     0572  2D74               	goto	u4071
  5135     0573  2D75               	goto	u4070
  5136     0574                     u4071:
  5137     0574  2E84               	goto	l4409
  5138     0575                     u4070:
  5139     0575                     l4347:
  5140                           
  5141                           ;c_b_b.c: 141:     {;c_b_b.c: 142:         for(int j = 0; j < 4; j++)
  5142     0575  01B2               	clrf	login@j
  5143     0576  01B3               	clrf	login@j+1
  5144     0577                     l4353:
  5145                           
  5146                           ;c_b_b.c: 143:         {;c_b_b.c: 144:             spassword[j] = eeprom_at24c04_random_
      +                          read(j);
  5147     0577  1283               	bcf	3,5	;RP0=0, select bank0
  5148     0578  1303               	bcf	3,6	;RP1=0, select bank0
  5149     0579  0832               	movf	login@j,w
  5150     057A  3E29               	addlw	(low (login@spassword| 0))& (0+255)
  5151     057B  0084               	movwf	4
  5152     057C  0832               	movf	login@j,w
  5153     057D  160A  118A  26E4  120A  118A  	fcall	_eeprom_at24c04_random_read
  5154     0582  1383               	bcf	3,7	;select IRP bank0
  5155     0583  0080               	movwf	0
  5156     0584                     l4355:
  5157                           
  5158                           ;c_b_b.c: 145:         }
  5159     0584  3001               	movlw	1
  5160     0585  1283               	bcf	3,5	;RP0=0, select bank0
  5161     0586  1303               	bcf	3,6	;RP1=0, select bank0
  5162     0587  07B2               	addwf	login@j,f
  5163     0588  1803               	skipnc
  5164     0589  0AB3               	incf	login@j+1,f
  5165     058A  3000               	movlw	0
  5166     058B  07B3               	addwf	login@j+1,f
  5167     058C                     l4357:
  5168     058C  0833               	movf	login@j+1,w
  5169     058D  3A80               	xorlw	128
  5170     058E  00FF               	movwf	btemp+1
  5171     058F  3080               	movlw	128
  5172     0590  027F               	subwf	btemp+1,w
  5173     0591  1D03               	skipz
  5174     0592  2D95               	goto	u4085
  5175     0593  3004               	movlw	4
  5176     0594  0232               	subwf	login@j,w
  5177     0595                     u4085:
  5178     0595  1C03               	skipc
  5179     0596  2D98               	goto	u4081
  5180     0597  2D99               	goto	u4080
  5181     0598                     u4081:
  5182     0598  2D77               	goto	l4353
  5183     0599                     u4080:
  5184     0599                     l4359:
  5185                           
  5186                           ;c_b_b.c: 146:         if(strncmp(spassword, npassword, 4) == 0)
  5187     0599  302D               	movlw	(low (login@npassword| 0))& (0+255)
  5188     059A  00F2               	movwf	strncmp@s2
  5189     059B  3004               	movlw	4
  5190     059C  00F3               	movwf	strncmp@len
  5191     059D  3000               	movlw	0
  5192     059E  00F4               	movwf	strncmp@len+1
  5193     059F  3029               	movlw	(low (login@spassword| 0))& (0+255)
  5194     05A0  120A  158A  20C9  120A  118A  	fcall	_strncmp
  5195     05A5  0872               	movf	?_strncmp,w
  5196     05A6  0473               	iorwf	?_strncmp+1,w
  5197     05A7  1D03               	btfss	3,2
  5198     05A8  2DAA               	goto	u4091
  5199     05A9  2DAB               	goto	u4090
  5200     05AA                     u4091:
  5201     05AA  2DAD               	goto	l4367
  5202     05AB                     u4090:
  5203     05AB                     l4361:
  5204                           
  5205                           ;c_b_b.c: 147:         {;c_b_b.c: 149:             return 0xB0;;
  5206     05AB  30B0               	movlw	176
  5207     05AC  2E8E               	goto	l344
  5208     05AD                     l4367:
  5209                           
  5210                           ;c_b_b.c: 152:         {;c_b_b.c: 153:             attempt--;
  5211     05AD  30FF               	movlw	255
  5212     05AE  1683               	bsf	3,5	;RP0=1, select bank1
  5213     05AF  1303               	bcf	3,6	;RP1=0, select bank1
  5214     05B0  07C1               	addwf	login@attempt^(0+128),f
  5215     05B1  1803               	skipnc
  5216     05B2  0AC2               	incf	(login@attempt+1)^(0+128),f
  5217     05B3  30FF               	movlw	255
  5218     05B4  07C2               	addwf	(login@attempt+1)^(0+128),f
  5219     05B5                     l4369:
  5220                           
  5221                           ;c_b_b.c: 154:             if(attempt == 0)
  5222     05B5  0841               	movf	login@attempt^(0+128),w
  5223     05B6  0442               	iorwf	(login@attempt+1)^(0+128),w
  5224     05B7  1D03               	btfss	3,2
  5225     05B8  2DBA               	goto	u4101
  5226     05B9  2DBB               	goto	u4100
  5227     05BA                     u4101:
  5228     05BA  2E26               	goto	l4387
  5229     05BB                     u4100:
  5230     05BB                     l4371:
  5231                           
  5232                           ;c_b_b.c: 155:             {;c_b_b.c: 157:                 TMR2ON = 1;
  5233     05BB  1283               	bcf	3,5	;RP0=0, select bank0
  5234     05BC  1303               	bcf	3,6	;RP1=0, select bank0
  5235     05BD  1512               	bsf	18,2	;volatile
  5236     05BE                     l4373:
  5237                           
  5238                           ;c_b_b.c: 158:                 sec = 60;
  5239     05BE  303C               	movlw	60
  5240     05BF  00C2               	movwf	_sec
  5241     05C0                     l4375:
  5242                           
  5243                           ;c_b_b.c: 159:                 clear_screen();
  5244     05C0  160A  118A  2526  120A  118A  	fcall	_clear_screen
  5245     05C5                     l4377:
  5246                           
  5247                           ;c_b_b.c: 160:                 clcd_write(0x0C, 0);
  5248     05C5  01F2               	clrf	clcd_write@mode
  5249     05C6  300C               	movlw	12
  5250     05C7  160A  118A  25B7  120A  118A  	fcall	_clcd_write
  5251                           
  5252                           ;c_b_b.c: 161:                 _delay((unsigned long)((100)*(20000000/4000000.0)));
  5253     05CC  30A5               	movlw	165
  5254     05CD  1283               	bcf	3,5	;RP0=0, select bank0
  5255     05CE  1303               	bcf	3,6	;RP1=0, select bank0
  5256     05CF  00A6               	movwf	??_login
  5257     05D0                     u5277:
  5258     05D0  0BA6               	decfsz	??_login,f
  5259     05D1  2DD0               	goto	u5277
  5260     05D2  2DD3               	nop2
  5261     05D3                     l4379:
  5262                           
  5263                           ;c_b_b.c: 162:                 clcd_print("You are locked", (0x80 + 0));
  5264     05D3  3088               	movlw	low (STR_14| (0+32768))
  5265     05D4  00F6               	movwf	clcd_print@str
  5266     05D5  3087               	movlw	high (STR_14| (0+32768))
  5267     05D6  00F7               	movwf	clcd_print@str+1
  5268     05D7  3080               	movlw	128
  5269     05D8  00F8               	movwf	clcd_print@addr
  5270     05D9  160A  118A  273D  120A  118A  	fcall	_clcd_print
  5271     05DE                     l4381:
  5272                           
  5273                           ;c_b_b.c: 163:                 clcd_print("Wait for...60sec", (0xC0 + 0));
  5274     05DE  3048               	movlw	low (STR_15| (0+32768))
  5275     05DF  00F6               	movwf	clcd_print@str
  5276     05E0  3087               	movlw	high (STR_15| (0+32768))
  5277     05E1  00F7               	movwf	clcd_print@str+1
  5278     05E2  30C0               	movlw	192
  5279     05E3  00F8               	movwf	clcd_print@addr
  5280     05E4  160A  118A  273D  120A  118A  	fcall	_clcd_print
  5281                           
  5282                           ;c_b_b.c: 166:                 while(sec)
  5283     05E9  2E1E               	goto	l4385
  5284     05EA                     l4383:
  5285                           
  5286                           ;c_b_b.c: 167:                 {;c_b_b.c: 168:                     clcd_putch(sec / 10 +
      +                           '0', (0xC0 + 11));
  5287     05EA  30CB               	movlw	203
  5288     05EB  00F9               	movwf	clcd_putch@addr
  5289     05EC  300A               	movlw	10
  5290     05ED  00F2               	movwf	___awdiv@divisor
  5291     05EE  3000               	movlw	0
  5292     05EF  00F3               	movwf	___awdiv@divisor+1
  5293     05F0  0842               	movf	_sec,w
  5294     05F1  00A6               	movwf	??_login
  5295     05F2  01A7               	clrf	??_login+1
  5296     05F3  0826               	movf	??_login,w
  5297     05F4  00F4               	movwf	___awdiv@dividend
  5298     05F5  0827               	movf	??_login+1,w
  5299     05F6  00F5               	movwf	___awdiv@dividend+1
  5300     05F7  120A  158A  239F  120A  118A  	fcall	___awdiv
  5301     05FC  0872               	movf	?___awdiv,w
  5302     05FD  3E30               	addlw	48
  5303     05FE  160A  118A  256F  120A  118A  	fcall	_clcd_putch
  5304                           
  5305                           ;c_b_b.c: 169:                     clcd_putch(sec % 10 + '0', (0xC0 + 12));
  5306     0603  30CC               	movlw	204
  5307     0604  00F9               	movwf	clcd_putch@addr
  5308     0605  300A               	movlw	10
  5309     0606  00F2               	movwf	___awmod@divisor
  5310     0607  3000               	movlw	0
  5311     0608  00F3               	movwf	___awmod@divisor+1
  5312     0609  1283               	bcf	3,5	;RP0=0, select bank0
  5313     060A  1303               	bcf	3,6	;RP1=0, select bank0
  5314     060B  0842               	movf	_sec,w
  5315     060C  00A6               	movwf	??_login
  5316     060D  01A7               	clrf	??_login+1
  5317     060E  0826               	movf	??_login,w
  5318     060F  00F4               	movwf	___awmod@dividend
  5319     0610  0827               	movf	??_login+1,w
  5320     0611  00F5               	movwf	___awmod@dividend+1
  5321     0612  120A  158A  2283  120A  118A  	fcall	___awmod
  5322     0617  0872               	movf	?___awmod,w
  5323     0618  3E30               	addlw	48
  5324     0619  160A  118A  256F  120A  118A  	fcall	_clcd_putch
  5325     061E                     l4385:
  5326                           
  5327                           ;c_b_b.c: 166:                 while(sec)
  5328     061E  1283               	bcf	3,5	;RP0=0, select bank0
  5329     061F  1303               	bcf	3,6	;RP1=0, select bank0
  5330     0620  0842               	movf	_sec,w
  5331     0621  1D03               	btfss	3,2
  5332     0622  2E24               	goto	u4111
  5333     0623  2E25               	goto	u4110
  5334     0624                     u4111:
  5335     0624  2DEA               	goto	l4383
  5336     0625                     u4110:
  5337     0625  2E5A               	goto	l4395
  5338     0626                     l4387:
  5339                           
  5340                           ;c_b_b.c: 173:             {;c_b_b.c: 175:                 clear_screen();
  5341     0626  160A  118A  2526  120A  118A  	fcall	_clear_screen
  5342     062B                     l4389:
  5343                           
  5344                           ;c_b_b.c: 176:                 clcd_print("Wrong Password", (0x80 + 0));
  5345     062B  3097               	movlw	low (STR_16| (0+32768))
  5346     062C  00F6               	movwf	clcd_print@str
  5347     062D  3087               	movlw	high (STR_16| (0+32768))
  5348     062E  00F7               	movwf	clcd_print@str+1
  5349     062F  3080               	movlw	128
  5350     0630  00F8               	movwf	clcd_print@addr
  5351     0631  160A  118A  273D  120A  118A  	fcall	_clcd_print
  5352     0636                     l4391:
  5353                           
  5354                           ;c_b_b.c: 177:                 clcd_putch(attempt + '0', (0xC0 + 0));
  5355     0636  30C0               	movlw	192
  5356     0637  00F9               	movwf	clcd_putch@addr
  5357     0638  1683               	bsf	3,5	;RP0=1, select bank1
  5358     0639  1303               	bcf	3,6	;RP1=0, select bank1
  5359     063A  0841               	movf	login@attempt^(0+128),w
  5360     063B  3E30               	addlw	48
  5361     063C  160A  118A  256F  120A  118A  	fcall	_clcd_putch
  5362                           
  5363                           ;c_b_b.c: 178:                 clcd_print("Attempt Remains", (0xC0 + 2));
  5364     0641  3059               	movlw	low (STR_17| (0+32768))
  5365     0642  00F6               	movwf	clcd_print@str
  5366     0643  3087               	movlw	high (STR_17| (0+32768))
  5367     0644  00F7               	movwf	clcd_print@str+1
  5368     0645  30C2               	movlw	194
  5369     0646  00F8               	movwf	clcd_print@addr
  5370     0647  160A  118A  273D  120A  118A  	fcall	_clcd_print
  5371     064C                     l4393:
  5372                           
  5373                           ;c_b_b.c: 179:                 _delay((unsigned long)((3000)*(20000000/4000.0)));
  5374     064C  304D               	movlw	77
  5375     064D  1283               	bcf	3,5	;RP0=0, select bank0
  5376     064E  1303               	bcf	3,6	;RP1=0, select bank0
  5377     064F  00A8               	movwf	??_login+2
  5378     0650  3019               	movlw	25
  5379     0651  00A7               	movwf	??_login+1
  5380     0652  304F               	movlw	79
  5381     0653  00A6               	movwf	??_login
  5382     0654                     u5287:
  5383     0654  0BA6               	decfsz	??_login,f
  5384     0655  2E54               	goto	u5287
  5385     0656  0BA7               	decfsz	??_login+1,f
  5386     0657  2E54               	goto	u5287
  5387     0658  0BA8               	decfsz	??_login+2,f
  5388     0659  2E54               	goto	u5287
  5389     065A                     l4395:
  5390                           
  5391                           ;c_b_b.c: 182:             clear_screen();
  5392     065A  160A  118A  2526  120A  118A  	fcall	_clear_screen
  5393     065F                     l4397:
  5394                           
  5395                           ;c_b_b.c: 183:             clcd_print("ENTER PASSWORD", (0x80 + 0));
  5396     065F  306A               	movlw	low ((STR_9+1)| (0+32768))
  5397     0660  00F6               	movwf	clcd_print@str
  5398     0661  3087               	movlw	high ((STR_9+1)| (0+32768))
  5399     0662  00F7               	movwf	clcd_print@str+1
  5400     0663  3080               	movlw	128
  5401     0664  00F8               	movwf	clcd_print@addr
  5402     0665  160A  118A  273D  120A  118A  	fcall	_clcd_print
  5403     066A                     l4399:
  5404                           
  5405                           ;c_b_b.c: 184:             i = 0;
  5406     066A  1283               	bcf	3,5	;RP0=0, select bank0
  5407     066B  1303               	bcf	3,6	;RP1=0, select bank0
  5408     066C  01BF               	clrf	login@i
  5409     066D                     l4401:
  5410                           
  5411                           ;c_b_b.c: 185:             return_time = 5;
  5412     066D  3005               	movlw	5
  5413     066E  00CD               	movwf	_return_time
  5414     066F                     l4403:
  5415                           
  5416                           ;c_b_b.c: 186:             clcd_write(0xC6, 0);
  5417     066F  01F2               	clrf	clcd_write@mode
  5418     0670  30C6               	movlw	198
  5419     0671  160A  118A  25B7  120A  118A  	fcall	_clcd_write
  5420     0676                     l4405:
  5421                           
  5422                           ;c_b_b.c: 187:             clcd_write(0x0F, 0);
  5423     0676  01F2               	clrf	clcd_write@mode
  5424     0677  300F               	movlw	15
  5425     0678  160A  118A  25B7  120A  118A  	fcall	_clcd_write
  5426     067D                     l4407:
  5427                           
  5428                           ;c_b_b.c: 188:             _delay((unsigned long)((100)*(20000000/4000000.0)));
  5429     067D  30A5               	movlw	165
  5430     067E  1283               	bcf	3,5	;RP0=0, select bank0
  5431     067F  1303               	bcf	3,6	;RP1=0, select bank0
  5432     0680  00A6               	movwf	??_login
  5433     0681                     u5297:
  5434     0681  0BA6               	decfsz	??_login,f
  5435     0682  2E81               	goto	u5297
  5436     0683  2E84               	nop2
  5437     0684                     l4409:
  5438                           
  5439                           ;c_b_b.c: 192:     if(return_time == 0)
  5440     0684  1283               	bcf	3,5	;RP0=0, select bank0
  5441     0685  1303               	bcf	3,6	;RP1=0, select bank0
  5442     0686  084D               	movf	_return_time,w
  5443     0687  1D03               	btfss	3,2
  5444     0688  2E8A               	goto	u4121
  5445     0689  2E8B               	goto	u4120
  5446     068A                     u4121:
  5447     068A  2E8D               	goto	l4415
  5448     068B                     u4120:
  5449     068B                     l4411:
  5450                           
  5451                           ;c_b_b.c: 193:     {;c_b_b.c: 194:         return 0xA0;;
  5452     068B  30A0               	movlw	160
  5453     068C  2E8E               	goto	l344
  5454     068D                     l4415:
  5455                           
  5456                           ;c_b_b.c: 197:     return 0xFF;
  5457     068D  30FF               	movlw	255
  5458     068E                     l344:
  5459     068E  0008               	return
  5460     068F                     __end_of_login:
  5461                           
  5462                           	psect	text9
  5463     08C9                     __ptext9:	
  5464 ;; *************** function _strncmp *****************
  5465 ;; Defined at:
  5466 ;;		line 4 in file "/Applications/microchip/xc8/v2.41/pic/sources/c90/common/strncmp.c"
  5467 ;; Parameters:    Size  Location     Type
  5468 ;;  s1              1    wreg     PTR const unsigned char 
  5469 ;;		 -> login@spassword(4), 
  5470 ;;  s2              1    2[COMMON] PTR const unsigned char 
  5471 ;;		 -> login@npassword(4), 
  5472 ;;  len             2    3[COMMON] unsigned int 
  5473 ;; Auto vars:     Size  Location     Type
  5474 ;;  s1              1    7[COMMON] PTR const unsigned char 
  5475 ;;		 -> login@spassword(4), 
  5476 ;; Return value:  Size  Location     Type
  5477 ;;                  2    2[COMMON] int 
  5478 ;; Registers used:
  5479 ;;		wreg, fsr0l, fsr0h, status,2, status,0
  5480 ;; Tracked objects:
  5481 ;;		On entry : 0/0
  5482 ;;		On exit  : 0/0
  5483 ;;		Unchanged: 0/0
  5484 ;; Data sizes:     COMMON   BANK0   BANK1   BANK3   BANK2
  5485 ;;      Params:         3       0       0       0       0
  5486 ;;      Locals:         1       0       0       0       0
  5487 ;;      Temps:          2       0       0       0       0
  5488 ;;      Totals:         6       0       0       0       0
  5489 ;;Total ram usage:        6 bytes
  5490 ;; Hardware stack levels used: 1
  5491 ;; Hardware stack levels required when called: 1
  5492 ;; This function calls:
  5493 ;;		Nothing
  5494 ;; This function is called by:
  5495 ;;		_login
  5496 ;; This function uses a non-reentrant model
  5497 ;;
  5498                           
  5499     08C9                     _strncmp:	
  5500                           ;psect for function _strncmp
  5501                           
  5502                           
  5503                           ;incstack = 0
  5504                           ; Regs used in _strncmp: [wreg-fsr0h+status,2+status,0]
  5505                           ;strncmp@s1 stored from wreg
  5506     08C9  00F7               	movwf	strncmp@s1
  5507     08CA                     l4079:
  5508     08CA  28F6               	goto	l1121
  5509     08CB                     l4081:
  5510     08CB  0877               	movf	strncmp@s1,w
  5511     08CC  0084               	movwf	4
  5512     08CD  1383               	bcf	3,7	;select IRP bank0
  5513     08CE  0800               	movf	0,w
  5514     08CF  1903               	btfsc	3,2
  5515     08D0  28D2               	goto	u3681
  5516     08D1  28D3               	goto	u3680
  5517     08D2                     u3681:
  5518     08D2  28DF               	goto	l4085
  5519     08D3                     u3680:
  5520     08D3                     l4083:
  5521     08D3  0872               	movf	strncmp@s2,w
  5522     08D4  0084               	movwf	4
  5523     08D5  0800               	movf	0,w
  5524     08D6  00F5               	movwf	??_strncmp
  5525     08D7  0877               	movf	strncmp@s1,w
  5526     08D8  0084               	movwf	4
  5527     08D9  0800               	movf	0,w
  5528     08DA  0675               	xorwf	??_strncmp,w
  5529     08DB  1903               	skipnz
  5530     08DC  28DE               	goto	u3691
  5531     08DD  28DF               	goto	u3690
  5532     08DE                     u3691:
  5533     08DE  28EE               	goto	l4089
  5534     08DF                     u3690:
  5535     08DF                     l4085:
  5536     08DF  0872               	movf	strncmp@s2,w
  5537     08E0  0084               	movwf	4
  5538     08E1  0800               	movf	0,w
  5539     08E2  00F5               	movwf	??_strncmp
  5540     08E3  0877               	movf	strncmp@s1,w
  5541     08E4  0084               	movwf	4
  5542     08E5  0800               	movf	0,w
  5543     08E6  00F6               	movwf	??_strncmp+1
  5544     08E7  0875               	movf	??_strncmp,w
  5545     08E8  0276               	subwf	??_strncmp+1,w
  5546     08E9  00F2               	movwf	?_strncmp
  5547     08EA  01F3               	clrf	?_strncmp+1
  5548     08EB  1C03               	skipc
  5549     08EC  03F3               	decf	?_strncmp+1,f
  5550     08ED  2906               	goto	l1126
  5551     08EE                     l4089:
  5552     08EE  3001               	movlw	1
  5553     08EF  00F5               	movwf	??_strncmp
  5554     08F0  0875               	movf	??_strncmp,w
  5555     08F1  07F7               	addwf	strncmp@s1,f
  5556     08F2  3001               	movlw	1
  5557     08F3  00F5               	movwf	??_strncmp
  5558     08F4  0875               	movf	??_strncmp,w
  5559     08F5  07F2               	addwf	strncmp@s2,f
  5560     08F6                     l1121:
  5561     08F6  3001               	movlw	1
  5562     08F7  02F3               	subwf	strncmp@len,f
  5563     08F8  3000               	movlw	0
  5564     08F9  1C03               	skipc
  5565     08FA  03F4               	decf	strncmp@len+1,f
  5566     08FB  02F4               	subwf	strncmp@len+1,f
  5567     08FC  0A73               	incf	strncmp@len,w
  5568     08FD  1D03               	skipz
  5569     08FE  2903               	goto	u3701
  5570     08FF  0A74               	incf	strncmp@len+1,w
  5571     0900  1D03               	btfss	3,2
  5572     0901  2903               	goto	u3701
  5573     0902  2904               	goto	u3700
  5574     0903                     u3701:
  5575     0903  28CB               	goto	l4081
  5576     0904                     u3700:
  5577     0904                     l4091:
  5578     0904  01F2               	clrf	?_strncmp
  5579     0905  01F3               	clrf	?_strncmp+1
  5580     0906                     l1126:
  5581     0906  0008               	return
  5582     0907                     __end_of_strncmp:
  5583                           
  5584                           	psect	text10
  5585     0ADC                     __ptext10:	
  5586 ;; *************** function _log_car_event *****************
  5587 ;; Defined at:
  5588 ;;		line 90 in file "c_b_b.c"
  5589 ;; Parameters:    Size  Location     Type
  5590 ;;  event           1    wreg     PTR unsigned char 
  5591 ;;		 -> main@event(3), 
  5592 ;;  speed           1    4[BANK0 ] unsigned char 
  5593 ;; Auto vars:     Size  Location     Type
  5594 ;;  event           1    7[BANK0 ] PTR unsigned char 
  5595 ;;		 -> main@event(3), 
  5596 ;; Return value:  Size  Location     Type
  5597 ;;                  1    wreg      void 
  5598 ;; Registers used:
  5599 ;;		wreg, fsr0l, fsr0h, status,2, status,0, btemp+1, pclath, cstack
  5600 ;; Tracked objects:
  5601 ;;		On entry : 0/0
  5602 ;;		On exit  : 0/0
  5603 ;;		Unchanged: 0/0
  5604 ;; Data sizes:     COMMON   BANK0   BANK1   BANK3   BANK2
  5605 ;;      Params:         0       1       0       0       0
  5606 ;;      Locals:         0       1       0       0       0
  5607 ;;      Temps:          0       2       0       0       0
  5608 ;;      Totals:         0       4       0       0       0
  5609 ;;Total ram usage:        4 bytes
  5610 ;; Hardware stack levels used: 1
  5611 ;; Hardware stack levels required when called: 6
  5612 ;; This function calls:
  5613 ;;		___awdiv
  5614 ;;		___awmod
  5615 ;;		_get_time
  5616 ;;		_log_event
  5617 ;;		_strncpy
  5618 ;; This function is called by:
  5619 ;;		_main
  5620 ;; This function uses a non-reentrant model
  5621 ;;
  5622                           
  5623     0ADC                     _log_car_event:	
  5624                           ;psect for function _log_car_event
  5625                           
  5626                           
  5627                           ;incstack = 0
  5628                           ; Regs used in _log_car_event: [wreg-fsr0h+status,2+status,0+btemp+1+pclath+cstack]
  5629                           ;log_car_event@event stored from wreg
  5630     0ADC  1283               	bcf	3,5	;RP0=0, select bank0
  5631     0ADD  1303               	bcf	3,6	;RP1=0, select bank0
  5632     0ADE  00A7               	movwf	log_car_event@event
  5633     0ADF                     l5187:
  5634                           
  5635                           ;c_b_b.c: 90: void log_car_event(unsigned char *event, char speed);c_b_b.c: 91: {;c_b_b.
      +                          c: 94:     get_time();
  5636     0ADF  120A  158A  21DF  120A  158A  	fcall	_get_time
  5637     0AE4                     l5189:
  5638                           
  5639                           ;c_b_b.c: 95:     strncpy(log, time, 6);
  5640     0AE4  3043               	movlw	(low (_time| 0))& (0+255)
  5641     0AE5  00F2               	movwf	strncpy@from
  5642     0AE6  3000               	movlw	0
  5643     0AE7  00F3               	movwf	strncpy@from+1
  5644     0AE8  3006               	movlw	6
  5645     0AE9  00F4               	movwf	strncpy@size
  5646     0AEA  3000               	movlw	0
  5647     0AEB  00F5               	movwf	strncpy@size+1
  5648     0AEC  30DD               	movlw	(low (_log| 0))& (0+255)
  5649     0AED  120A  158A  2107  120A  158A  	fcall	_strncpy
  5650     0AF2                     l5191:
  5651                           
  5652                           ;c_b_b.c: 96:     strncpy(&log[6], event, 2);
  5653     0AF2  1283               	bcf	3,5	;RP0=0, select bank0
  5654     0AF3  1303               	bcf	3,6	;RP1=0, select bank0
  5655     0AF4  0827               	movf	log_car_event@event,w
  5656     0AF5  00F2               	movwf	strncpy@from
  5657     0AF6  3001               	movlw	1
  5658     0AF7  00F3               	movwf	strncpy@from+1
  5659     0AF8  3002               	movlw	2
  5660     0AF9  00F4               	movwf	strncpy@size
  5661     0AFA  3000               	movlw	0
  5662     0AFB  00F5               	movwf	strncpy@size+1
  5663     0AFC  30E3               	movlw	(low ((_log| 0+6)))& (0+255)
  5664     0AFD  120A  158A  2107  120A  158A  	fcall	_strncpy
  5665                           
  5666                           ;c_b_b.c: 97:     log[8] = speed/10 + '0';
  5667     0B02  300A               	movlw	10
  5668     0B03  00F2               	movwf	___awdiv@divisor
  5669     0B04  3000               	movlw	0
  5670     0B05  00F3               	movwf	___awdiv@divisor+1
  5671     0B06  1283               	bcf	3,5	;RP0=0, select bank0
  5672     0B07  1303               	bcf	3,6	;RP1=0, select bank0
  5673     0B08  0824               	movf	log_car_event@speed,w
  5674     0B09  00A5               	movwf	??_log_car_event
  5675     0B0A  01A6               	clrf	??_log_car_event+1
  5676     0B0B  0825               	movf	??_log_car_event,w
  5677     0B0C  00F4               	movwf	___awdiv@dividend
  5678     0B0D  0826               	movf	??_log_car_event+1,w
  5679     0B0E  00F5               	movwf	___awdiv@dividend+1
  5680     0B0F  120A  158A  239F  120A  158A  	fcall	___awdiv
  5681     0B14  0872               	movf	?___awdiv,w
  5682     0B15  3E30               	addlw	48
  5683     0B16  1683               	bsf	3,5	;RP0=1, select bank1
  5684     0B17  1303               	bcf	3,6	;RP1=0, select bank1
  5685     0B18  00E5               	movwf	(_log^(0+128)+8)
  5686                           
  5687                           ;c_b_b.c: 98:     log[9] = speed%10 + '0';
  5688     0B19  300A               	movlw	10
  5689     0B1A  00F2               	movwf	___awmod@divisor
  5690     0B1B  3000               	movlw	0
  5691     0B1C  00F3               	movwf	___awmod@divisor+1
  5692     0B1D  1283               	bcf	3,5	;RP0=0, select bank0
  5693     0B1E  1303               	bcf	3,6	;RP1=0, select bank0
  5694     0B1F  0824               	movf	log_car_event@speed,w
  5695     0B20  00A5               	movwf	??_log_car_event
  5696     0B21  01A6               	clrf	??_log_car_event+1
  5697     0B22  0825               	movf	??_log_car_event,w
  5698     0B23  00F4               	movwf	___awmod@dividend
  5699     0B24  0826               	movf	??_log_car_event+1,w
  5700     0B25  00F5               	movwf	___awmod@dividend+1
  5701     0B26  120A  158A  2283  120A  158A  	fcall	___awmod
  5702     0B2B  0872               	movf	?___awmod,w
  5703     0B2C  3E30               	addlw	48
  5704     0B2D  1683               	bsf	3,5	;RP0=1, select bank1
  5705     0B2E  1303               	bcf	3,6	;RP1=0, select bank1
  5706     0B2F  00E6               	movwf	(_log^(0+128)+9)
  5707     0B30                     l5193:
  5708                           
  5709                           ;c_b_b.c: 99:     log[10] = '\0';
  5710     0B30  01E7               	clrf	(_log^(0+128)+10)
  5711     0B31                     l5195:
  5712                           
  5713                           ;c_b_b.c: 100:     log_event();
  5714     0B31  160A  118A  25F8  120A  158A  	fcall	_log_event
  5715     0B36                     l326:
  5716     0B36  0008               	return
  5717     0B37                     __end_of_log_car_event:
  5718                           
  5719                           	psect	text11
  5720     0907                     __ptext11:	
  5721 ;; *************** function _strncpy *****************
  5722 ;; Defined at:
  5723 ;;		line 8 in file "/Applications/microchip/xc8/v2.41/pic/sources/c90/common/strncpy.c"
  5724 ;; Parameters:    Size  Location     Type
  5725 ;;  to              1    wreg     PTR unsigned char 
  5726 ;;		 -> log(11), 
  5727 ;;  from            2    2[COMMON] PTR const unsigned char 
  5728 ;;		 -> time(7), main@event(3), 
  5729 ;;  size            2    4[COMMON] unsigned int 
  5730 ;; Auto vars:     Size  Location     Type
  5731 ;;  to              1    0[BANK0 ] PTR unsigned char 
  5732 ;;		 -> log(11), 
  5733 ;;  cp              1    1[BANK0 ] PTR unsigned char 
  5734 ;;		 -> log(11), 
  5735 ;; Return value:  Size  Location     Type
  5736 ;;                  1    wreg      PTR unsigned char 
  5737 ;; Registers used:
  5738 ;;		wreg, fsr0l, fsr0h, status,2, status,0
  5739 ;; Tracked objects:
  5740 ;;		On entry : 0/0
  5741 ;;		On exit  : 0/0
  5742 ;;		Unchanged: 0/0
  5743 ;; Data sizes:     COMMON   BANK0   BANK1   BANK3   BANK2
  5744 ;;      Params:         4       0       0       0       0
  5745 ;;      Locals:         0       2       0       0       0
  5746 ;;      Temps:          3       0       0       0       0
  5747 ;;      Totals:         7       2       0       0       0
  5748 ;;Total ram usage:        9 bytes
  5749 ;; Hardware stack levels used: 1
  5750 ;; Hardware stack levels required when called: 1
  5751 ;; This function calls:
  5752 ;;		Nothing
  5753 ;; This function is called by:
  5754 ;;		_log_car_event
  5755 ;; This function uses a non-reentrant model
  5756 ;;
  5757                           
  5758     0907                     _strncpy:	
  5759                           ;psect for function _strncpy
  5760                           
  5761                           
  5762                           ;incstack = 0
  5763                           ; Regs used in _strncpy: [wreg-fsr0h+status,2+status,0]
  5764                           ;strncpy@to stored from wreg
  5765     0907  1283               	bcf	3,5	;RP0=0, select bank0
  5766     0908  1303               	bcf	3,6	;RP1=0, select bank0
  5767     0909  00A0               	movwf	strncpy@to
  5768     090A                     l5171:
  5769     090A  0820               	movf	strncpy@to,w
  5770     090B  00A1               	movwf	strncpy@cp
  5771     090C  292E               	goto	l5179
  5772     090D                     l5173:
  5773     090D  3001               	movlw	1
  5774     090E  02F4               	subwf	strncpy@size,f
  5775     090F  3000               	movlw	0
  5776     0910  1C03               	skipc
  5777     0911  03F5               	decf	strncpy@size+1,f
  5778     0912  02F5               	subwf	strncpy@size+1,f
  5779     0913                     l5175:
  5780     0913  0873               	movf	strncpy@from+1,w
  5781     0914  00F7               	movwf	??_strncpy+1
  5782     0915  0872               	movf	strncpy@from,w
  5783     0916  00F6               	movwf	??_strncpy
  5784     0917  0AF2               	incf	strncpy@from,f
  5785     0918  1903               	skipnz
  5786     0919  0AF3               	incf	strncpy@from+1,f
  5787     091A  0876               	movf	??_strncpy,w
  5788     091B  0084               	movwf	4
  5789     091C  1783               	bsf	3,7
  5790     091D  1C77               	btfss	??_strncpy+1,0
  5791     091E  1383               	bcf	3,7
  5792     091F  0800               	movf	0,w
  5793     0920  00F8               	movwf	??_strncpy+2
  5794     0921  0821               	movf	strncpy@cp,w
  5795     0922  0084               	movwf	4
  5796     0923  3001               	movlw	1
  5797     0924  07A1               	addwf	strncpy@cp,f
  5798     0925  0878               	movf	??_strncpy+2,w
  5799     0926  1383               	bcf	3,7	;select IRP bank0
  5800     0927  0080               	movwf	0
  5801     0928  0800               	movf	0,w
  5802     0929  1D03               	btfss	3,2
  5803     092A  292C               	goto	u4991
  5804     092B  292D               	goto	u4990
  5805     092C                     u4991:
  5806     092C  292E               	goto	l5179
  5807     092D                     u4990:
  5808     092D  293D               	goto	l5185
  5809     092E                     l5179:
  5810     092E  0874               	movf	strncpy@size,w
  5811     092F  0475               	iorwf	strncpy@size+1,w
  5812     0930  1D03               	btfss	3,2
  5813     0931  2933               	goto	u5001
  5814     0932  2934               	goto	u5000
  5815     0933                     u5001:
  5816     0933  290D               	goto	l5173
  5817     0934                     u5000:
  5818     0934  293D               	goto	l5185
  5819     0935                     l5181:
  5820     0935  0821               	movf	strncpy@cp,w
  5821     0936  0084               	movwf	4
  5822     0937  1383               	bcf	3,7	;select IRP bank0
  5823     0938  0180               	clrf	0
  5824     0939                     l5183:
  5825     0939  3001               	movlw	1
  5826     093A  00F6               	movwf	??_strncpy
  5827     093B  0876               	movf	??_strncpy,w
  5828     093C  07A1               	addwf	strncpy@cp,f
  5829     093D                     l5185:
  5830     093D  3001               	movlw	1
  5831     093E  02F4               	subwf	strncpy@size,f
  5832     093F  3000               	movlw	0
  5833     0940  1C03               	skipc
  5834     0941  03F5               	decf	strncpy@size+1,f
  5835     0942  02F5               	subwf	strncpy@size+1,f
  5836     0943  0A74               	incf	strncpy@size,w
  5837     0944  1D03               	skipz
  5838     0945  294A               	goto	u5011
  5839     0946  0A75               	incf	strncpy@size+1,w
  5840     0947  1D03               	btfss	3,2
  5841     0948  294A               	goto	u5011
  5842     0949  294B               	goto	u5010
  5843     094A                     u5011:
  5844     094A  2935               	goto	l5181
  5845     094B                     u5010:
  5846     094B                     l1137:
  5847     094B  0008               	return
  5848     094C                     __end_of_strncpy:
  5849                           
  5850                           	psect	text12
  5851     15F8                     __ptext12:	
  5852 ;; *************** function _log_event *****************
  5853 ;; Defined at:
  5854 ;;		line 77 in file "c_b_b.c"
  5855 ;; Parameters:    Size  Location     Type
  5856 ;;		None
  5857 ;; Auto vars:     Size  Location     Type
  5858 ;;  addr            1    2[BANK0 ] unsigned char 
  5859 ;; Return value:  Size  Location     Type
  5860 ;;                  1    wreg      void 
  5861 ;; Registers used:
  5862 ;;		wreg, fsr0l, fsr0h, status,2, status,0, btemp+1, pclath, cstack
  5863 ;; Tracked objects:
  5864 ;;		On entry : 0/0
  5865 ;;		On exit  : 0/0
  5866 ;;		Unchanged: 0/0
  5867 ;; Data sizes:     COMMON   BANK0   BANK1   BANK3   BANK2
  5868 ;;      Params:         0       0       0       0       0
  5869 ;;      Locals:         0       1       0       0       0
  5870 ;;      Temps:          0       1       0       0       0
  5871 ;;      Totals:         0       2       0       0       0
  5872 ;;Total ram usage:        2 bytes
  5873 ;; Hardware stack levels used: 1
  5874 ;; Hardware stack levels required when called: 5
  5875 ;; This function calls:
  5876 ;;		___bmul
  5877 ;;		_eeprom_at24c04_str_write
  5878 ;; This function is called by:
  5879 ;;		_log_car_event
  5880 ;; This function uses a non-reentrant model
  5881 ;;
  5882                           
  5883     15F8                     _log_event:	
  5884                           ;psect for function _log_event
  5885                           
  5886     15F8                     l4049:	
  5887                           ;incstack = 0
  5888                           ; Regs used in _log_event: [wreg-fsr0h+status,2+status,0+btemp+1+pclath+cstack]
  5889                           
  5890                           
  5891                           ;c_b_b.c: 79:     clear_flag = 0;
  5892     15F8  1283               	bcf	3,5	;RP0=0, select bank0
  5893     15F9  1303               	bcf	3,6	;RP1=0, select bank0
  5894     15FA  01C0               	clrf	_clear_flag
  5895     15FB                     l4051:
  5896     15FB                     l4053:
  5897                           
  5898                           ;c_b_b.c: 81:     pos++;
  5899     15FB  3001               	movlw	1
  5900     15FC  00A1               	movwf	??_log_event
  5901     15FD  0821               	movf	??_log_event,w
  5902     15FE  07CE               	addwf	_pos,f
  5903     15FF                     l4055:
  5904                           
  5905                           ;c_b_b.c: 82:     if(pos == 10)
  5906     15FF  300A               	movlw	10
  5907     1600  064E               	xorwf	_pos,w
  5908     1601  1D03               	btfss	3,2
  5909     1602  2E04               	goto	u3641
  5910     1603  2E05               	goto	u3640
  5911     1604                     u3641:
  5912     1604  2E06               	goto	l4059
  5913     1605                     u3640:
  5914     1605                     l4057:
  5915                           
  5916                           ;c_b_b.c: 83:     {;c_b_b.c: 84:         pos = 0;
  5917     1605  01CE               	clrf	_pos
  5918     1606                     l4059:
  5919                           
  5920                           ;c_b_b.c: 86:     addr = pos * 10 + 5;
  5921     1606  300A               	movlw	10
  5922     1607  00F2               	movwf	___bmul@multiplicand
  5923     1608  084E               	movf	_pos,w
  5924     1609  160A  118A  2584  160A  118A  	fcall	___bmul
  5925     160E  3E05               	addlw	5
  5926     160F  1283               	bcf	3,5	;RP0=0, select bank0
  5927     1610  1303               	bcf	3,6	;RP1=0, select bank0
  5928     1611  00A2               	movwf	log_event@addr
  5929     1612                     l4061:
  5930                           
  5931                           ;c_b_b.c: 87:     eeprom_at24c04_str_write(addr, log);
  5932     1612  30DD               	movlw	(low (_log| 0))& (0+255)
  5933     1613  00F7               	movwf	eeprom_at24c04_str_write@data
  5934     1614  3000               	movlw	0
  5935     1615  00F8               	movwf	eeprom_at24c04_str_write@data+1
  5936     1616  0822               	movf	log_event@addr,w
  5937     1617  120A  158A  2025  160A  118A  	fcall	_eeprom_at24c04_str_write
  5938     161C                     l323:
  5939     161C  0008               	return
  5940     161D                     __end_of_log_event:
  5941                           
  5942                           	psect	text13
  5943     0854                     __ptext13:	
  5944 ;; *************** function _init_config *****************
  5945 ;; Defined at:
  5946 ;;		line 15 in file "main.c"
  5947 ;; Parameters:    Size  Location     Type
  5948 ;;		None
  5949 ;; Auto vars:     Size  Location     Type
  5950 ;;		None
  5951 ;; Return value:  Size  Location     Type
  5952 ;;                  1    wreg      void 
  5953 ;; Registers used:
  5954 ;;		wreg, status,2, status,0, pclath, cstack
  5955 ;; Tracked objects:
  5956 ;;		On entry : 0/0
  5957 ;;		On exit  : 0/0
  5958 ;;		Unchanged: 0/0
  5959 ;; Data sizes:     COMMON   BANK0   BANK1   BANK3   BANK2
  5960 ;;      Params:         0       0       0       0       0
  5961 ;;      Locals:         0       0       0       0       0
  5962 ;;      Temps:          0       0       0       0       0
  5963 ;;      Totals:         0       0       0       0       0
  5964 ;;Total ram usage:        0 bytes
  5965 ;; Hardware stack levels used: 1
  5966 ;; Hardware stack levels required when called: 6
  5967 ;; This function calls:
  5968 ;;		_init_adc
  5969 ;;		_init_clcd
  5970 ;;		_init_digital_keypad
  5971 ;;		_init_ds1307
  5972 ;;		_init_i2c
  5973 ;;		_init_timer2
  5974 ;;		_init_uart
  5975 ;; This function is called by:
  5976 ;;		_main
  5977 ;; This function uses a non-reentrant model
  5978 ;;
  5979                           
  5980     0854                     _init_config:	
  5981                           ;psect for function _init_config
  5982                           
  5983     0854                     l4235:	
  5984                           ;incstack = 0
  5985                           ; Regs used in _init_config: [wreg+status,2+status,0+pclath+cstack]
  5986                           
  5987                           
  5988                           ;main.c: 17: void main(void) {
  5989     0854  178B               	bsf	11,7	;volatile
  5990                           
  5991                           ;main.c: 18:     init_config();
  5992     0855  170B               	bsf	11,6	;volatile
  5993     0856                     l4237:
  5994                           
  5995                           ;main.c: 19:     unsigned char control_flag = 0x01; ;
  5996     0856  160A  118A  250E  120A  158A  	fcall	_init_clcd
  5997     085B                     l4239:
  5998                           
  5999                           ;main.c: 20:     char event[3] = "ON";
  6000     085B  160A  118A  24BA  120A  158A  	fcall	_init_adc
  6001     0860                     l4241:
  6002                           
  6003                           ;main.c: 21:     char speed = 0, gr = 0;
  6004     0860  3000               	movlw	0
  6005     0861  1283               	bcf	3,5	;RP0=0, select bank0
  6006     0862  1303               	bcf	3,6	;RP1=0, select bank0
  6007     0863  00A9               	movwf	init_i2c@baud+3
  6008     0864  3001               	movlw	1
  6009     0865  00A8               	movwf	init_i2c@baud+2
  6010     0866  3086               	movlw	134
  6011     0867  00A7               	movwf	init_i2c@baud+1
  6012     0868  30A0               	movlw	160
  6013     0869  00A6               	movwf	init_i2c@baud
  6014     086A  160A  118A  27CE  120A  158A  	fcall	_init_i2c
  6015     086F                     l4243:
  6016                           
  6017                           ;main.c: 22:     log_car_event(event, speed);
  6018     086F  160A  118A  2549  120A  158A  	fcall	_init_ds1307
  6019     0874                     l4245:
  6020                           
  6021                           ;main.c: 23:     char *gear[] = {"GN", "GR", "G1", "G2", "G3", "G4"};
  6022     0874  160A  118A  24B4  120A  158A  	fcall	_init_digital_keypad
  6023     0879                     l4247:
  6024                           
  6025                           ;main.c: 24:     unsigned char key, key_2;
  6026     0879  160A  118A  24E3  120A  158A  	fcall	_init_timer2
  6027     087E                     l4249:
  6028                           
  6029                           ;main.c: 25:     unsigned char reset_flag = 0x10;;
  6030     087E  3000               	movlw	0
  6031     087F  1283               	bcf	3,5	;RP0=0, select bank0
  6032     0880  1303               	bcf	3,6	;RP1=0, select bank0
  6033     0881  00A9               	movwf	init_uart@baud+3
  6034     0882  3000               	movlw	0
  6035     0883  00A8               	movwf	init_uart@baud+2
  6036     0884  3025               	movlw	37
  6037     0885  00A7               	movwf	init_uart@baud+1
  6038     0886  3080               	movlw	128
  6039     0887  00A6               	movwf	init_uart@baud
  6040     0888  160A  118A  276C  120A  158A  	fcall	_init_uart
  6041     088D                     l191:
  6042     088D  0008               	return
  6043     088E                     __end_of_init_config:
  6044                           
  6045                           	psect	text14
  6046     176C                     __ptext14:	
  6047 ;; *************** function _init_uart *****************
  6048 ;; Defined at:
  6049 ;;		line 4 in file "uart.c"
  6050 ;; Parameters:    Size  Location     Type
  6051 ;;  baud            4    6[BANK0 ] unsigned long 
  6052 ;; Auto vars:     Size  Location     Type
  6053 ;;		None
  6054 ;; Return value:  Size  Location     Type
  6055 ;;                  1    wreg      void 
  6056 ;; Registers used:
  6057 ;;		wreg, status,2, status,0, pclath, cstack
  6058 ;; Tracked objects:
  6059 ;;		On entry : 0/0
  6060 ;;		On exit  : 0/0
  6061 ;;		Unchanged: 0/0
  6062 ;; Data sizes:     COMMON   BANK0   BANK1   BANK3   BANK2
  6063 ;;      Params:         0       4       0       0       0
  6064 ;;      Locals:         0       0       0       0       0
  6065 ;;      Temps:          0       4       0       0       0
  6066 ;;      Totals:         0       8       0       0       0
  6067 ;;Total ram usage:        8 bytes
  6068 ;; Hardware stack levels used: 1
  6069 ;; Hardware stack levels required when called: 2
  6070 ;; This function calls:
  6071 ;;		___lldiv
  6072 ;; This function is called by:
  6073 ;;		_init_config
  6074 ;; This function uses a non-reentrant model
  6075 ;;
  6076                           
  6077     176C                     _init_uart:	
  6078                           ;psect for function _init_uart
  6079                           
  6080     176C                     l4011:	
  6081                           ;incstack = 0
  6082                           ; Regs used in _init_uart: [wreg+status,2+status,0+pclath+cstack]
  6083                           
  6084                           
  6085                           ;uart.c: 4: void init_uart(unsigned long baud);uart.c: 5: {;uart.c: 7:     SPEN = 1;
  6086     176C  1283               	bcf	3,5	;RP0=0, select bank0
  6087     176D  1303               	bcf	3,6	;RP1=0, select bank0
  6088     176E  1798               	bsf	24,7	;volatile
  6089                           
  6090                           ;uart.c: 10:     CREN = 1;
  6091     176F  1618               	bsf	24,4	;volatile
  6092     1770                     l4013:
  6093                           
  6094                           ;uart.c: 13:     SPBRG = (20000000 / (16 * baud)) - 1;
  6095     1770  0826               	movf	init_uart@baud,w
  6096     1771  00AA               	movwf	??_init_uart
  6097     1772  0827               	movf	init_uart@baud+1,w
  6098     1773  00AB               	movwf	??_init_uart+1
  6099     1774  0828               	movf	init_uart@baud+2,w
  6100     1775  00AC               	movwf	??_init_uart+2
  6101     1776  0829               	movf	init_uart@baud+3,w
  6102     1777  00AD               	movwf	??_init_uart+3
  6103     1778  3004               	movlw	4
  6104     1779                     u3585:
  6105     1779  1003               	clrc
  6106     177A  0DAA               	rlf	??_init_uart,f
  6107     177B  0DAB               	rlf	??_init_uart+1,f
  6108     177C  0DAC               	rlf	??_init_uart+2,f
  6109     177D  0DAD               	rlf	??_init_uart+3,f
  6110     177E                     u3580:
  6111     177E  3EFF               	addlw	-1
  6112     177F  1D03               	skipz
  6113     1780  2F79               	goto	u3585
  6114     1781  082D               	movf	??_init_uart+3,w
  6115     1782  00F5               	movwf	___lldiv@divisor+3
  6116     1783  082C               	movf	??_init_uart+2,w
  6117     1784  00F4               	movwf	___lldiv@divisor+2
  6118     1785  082B               	movf	??_init_uart+1,w
  6119     1786  00F3               	movwf	___lldiv@divisor+1
  6120     1787  082A               	movf	??_init_uart,w
  6121     1788  00F2               	movwf	___lldiv@divisor
  6122     1789  3001               	movlw	1
  6123     178A  00F9               	movwf	___lldiv@dividend+3
  6124     178B  3031               	movlw	49
  6125     178C  00F8               	movwf	___lldiv@dividend+2
  6126     178D  302D               	movlw	45
  6127     178E  00F7               	movwf	___lldiv@dividend+1
  6128     178F  3000               	movlw	0
  6129     1790  00F6               	movwf	___lldiv@dividend
  6130     1791  120A  158A  2337  160A  118A  	fcall	___lldiv
  6131     1796  0872               	movf	?___lldiv,w
  6132     1797  3EFF               	addlw	255
  6133     1798  1683               	bsf	3,5	;RP0=1, select bank1
  6134     1799  1303               	bcf	3,6	;RP1=0, select bank1
  6135     179A  0099               	movwf	25	;volatile
  6136     179B                     l552:
  6137     179B  0008               	return
  6138     179C                     __end_of_init_uart:
  6139                           
  6140                           	psect	text15
  6141     14E3                     __ptext15:	
  6142 ;; *************** function _init_timer2 *****************
  6143 ;; Defined at:
  6144 ;;		line 5 in file "timers.c"
  6145 ;; Parameters:    Size  Location     Type
  6146 ;;		None
  6147 ;; Auto vars:     Size  Location     Type
  6148 ;;		None
  6149 ;; Return value:  Size  Location     Type
  6150 ;;                  1    wreg      void 
  6151 ;; Registers used:
  6152 ;;		wreg
  6153 ;; Tracked objects:
  6154 ;;		On entry : 0/0
  6155 ;;		On exit  : 0/0
  6156 ;;		Unchanged: 0/0
  6157 ;; Data sizes:     COMMON   BANK0   BANK1   BANK3   BANK2
  6158 ;;      Params:         0       0       0       0       0
  6159 ;;      Locals:         0       0       0       0       0
  6160 ;;      Temps:          0       0       0       0       0
  6161 ;;      Totals:         0       0       0       0       0
  6162 ;;Total ram usage:        0 bytes
  6163 ;; Hardware stack levels used: 1
  6164 ;; Hardware stack levels required when called: 1
  6165 ;; This function calls:
  6166 ;;		Nothing
  6167 ;; This function is called by:
  6168 ;;		_init_config
  6169 ;; This function uses a non-reentrant model
  6170 ;;
  6171                           
  6172     14E3                     _init_timer2:	
  6173                           ;psect for function _init_timer2
  6174                           
  6175     14E3                     l4005:	
  6176                           ;incstack = 0
  6177                           ; Regs used in _init_timer2: [wreg]
  6178                           
  6179                           
  6180                           ;timers.c: 8:     T2CKPS0 = 0;
  6181     14E3  1283               	bcf	3,5	;RP0=0, select bank0
  6182     14E4  1303               	bcf	3,6	;RP1=0, select bank0
  6183     14E5  1012               	bcf	18,0	;volatile
  6184                           
  6185                           ;timers.c: 9:     T2CKPS1 = 0;
  6186     14E6  1092               	bcf	18,1	;volatile
  6187     14E7                     l4007:
  6188                           
  6189                           ;timers.c: 12:     PR2 = 250;
  6190     14E7  30FA               	movlw	250
  6191     14E8  1683               	bsf	3,5	;RP0=1, select bank1
  6192     14E9  1303               	bcf	3,6	;RP1=0, select bank1
  6193     14EA  0092               	movwf	18	;volatile
  6194     14EB                     l4009:
  6195                           
  6196                           ;timers.c: 15:     TMR2IE = 1;
  6197     14EB  148C               	bsf	12,1	;volatile
  6198     14EC                     l535:
  6199     14EC  0008               	return
  6200     14ED                     __end_of_init_timer2:
  6201                           
  6202                           	psect	text16
  6203     17CE                     __ptext16:	
  6204 ;; *************** function _init_i2c *****************
  6205 ;; Defined at:
  6206 ;;		line 4 in file "i2c.c"
  6207 ;; Parameters:    Size  Location     Type
  6208 ;;  baud            4    6[BANK0 ] unsigned long 
  6209 ;; Auto vars:     Size  Location     Type
  6210 ;;		None
  6211 ;; Return value:  Size  Location     Type
  6212 ;;                  1    wreg      void 
  6213 ;; Registers used:
  6214 ;;		wreg, status,2, status,0, pclath, cstack
  6215 ;; Tracked objects:
  6216 ;;		On entry : 0/0
  6217 ;;		On exit  : 0/0
  6218 ;;		Unchanged: 0/0
  6219 ;; Data sizes:     COMMON   BANK0   BANK1   BANK3   BANK2
  6220 ;;      Params:         0       4       0       0       0
  6221 ;;      Locals:         0       0       0       0       0
  6222 ;;      Temps:          0       4       0       0       0
  6223 ;;      Totals:         0       8       0       0       0
  6224 ;;Total ram usage:        8 bytes
  6225 ;; Hardware stack levels used: 1
  6226 ;; Hardware stack levels required when called: 2
  6227 ;; This function calls:
  6228 ;;		___lldiv
  6229 ;; This function is called by:
  6230 ;;		_init_config
  6231 ;; This function uses a non-reentrant model
  6232 ;;
  6233                           
  6234     17CE                     _init_i2c:	
  6235                           ;psect for function _init_i2c
  6236                           
  6237     17CE                     l3997:	
  6238                           ;incstack = 0
  6239                           ; Regs used in _init_i2c: [wreg+status,2+status,0+pclath+cstack]
  6240                           
  6241                           
  6242                           ;i2c.c: 4: void init_i2c(unsigned long baud);i2c.c: 5: {;i2c.c: 7:     SSPM3 = 1;
  6243     17CE  1283               	bcf	3,5	;RP0=0, select bank0
  6244     17CF  1303               	bcf	3,6	;RP1=0, select bank0
  6245     17D0  1594               	bsf	20,3	;volatile
  6246     17D1                     l3999:
  6247                           
  6248                           ;i2c.c: 10:     SSPADD = (unsigned char)(20000000 / (4 * baud)) - 1;
  6249     17D1  0826               	movf	init_i2c@baud,w
  6250     17D2  00AA               	movwf	??_init_i2c
  6251     17D3  0827               	movf	init_i2c@baud+1,w
  6252     17D4  00AB               	movwf	??_init_i2c+1
  6253     17D5  0828               	movf	init_i2c@baud+2,w
  6254     17D6  00AC               	movwf	??_init_i2c+2
  6255     17D7  0829               	movf	init_i2c@baud+3,w
  6256     17D8  00AD               	movwf	??_init_i2c+3
  6257     17D9  3002               	movlw	2
  6258     17DA                     u3575:
  6259     17DA  1003               	clrc
  6260     17DB  0DAA               	rlf	??_init_i2c,f
  6261     17DC  0DAB               	rlf	??_init_i2c+1,f
  6262     17DD  0DAC               	rlf	??_init_i2c+2,f
  6263     17DE  0DAD               	rlf	??_init_i2c+3,f
  6264     17DF                     u3570:
  6265     17DF  3EFF               	addlw	-1
  6266     17E0  1D03               	skipz
  6267     17E1  2FDA               	goto	u3575
  6268     17E2  082D               	movf	??_init_i2c+3,w
  6269     17E3  00F5               	movwf	___lldiv@divisor+3
  6270     17E4  082C               	movf	??_init_i2c+2,w
  6271     17E5  00F4               	movwf	___lldiv@divisor+2
  6272     17E6  082B               	movf	??_init_i2c+1,w
  6273     17E7  00F3               	movwf	___lldiv@divisor+1
  6274     17E8  082A               	movf	??_init_i2c,w
  6275     17E9  00F2               	movwf	___lldiv@divisor
  6276     17EA  3001               	movlw	1
  6277     17EB  00F9               	movwf	___lldiv@dividend+3
  6278     17EC  3031               	movlw	49
  6279     17ED  00F8               	movwf	___lldiv@dividend+2
  6280     17EE  302D               	movlw	45
  6281     17EF  00F7               	movwf	___lldiv@dividend+1
  6282     17F0  3000               	movlw	0
  6283     17F1  00F6               	movwf	___lldiv@dividend
  6284     17F2  120A  158A  2337  160A  118A  	fcall	___lldiv
  6285     17F7  0872               	movf	?___lldiv,w
  6286     17F8  3EFF               	addlw	255
  6287     17F9  1683               	bsf	3,5	;RP0=1, select bank1
  6288     17FA  1303               	bcf	3,6	;RP1=0, select bank1
  6289     17FB  0093               	movwf	19	;volatile
  6290     17FC                     l4001:
  6291                           
  6292                           ;i2c.c: 13:     SSPEN = 1;
  6293     17FC  1283               	bcf	3,5	;RP0=0, select bank0
  6294     17FD  1303               	bcf	3,6	;RP1=0, select bank0
  6295     17FE  1694               	bsf	20,5	;volatile
  6296     17FF                     l105:
  6297     17FF  0008               	return
  6298     1800                     __end_of_init_i2c:
  6299                           
  6300                           	psect	text17
  6301     0B37                     __ptext17:	
  6302 ;; *************** function ___lldiv *****************
  6303 ;; Defined at:
  6304 ;;		line 5 in file "/Applications/microchip/xc8/v2.41/pic/sources/c90/common/__lldiv.c"
  6305 ;; Parameters:    Size  Location     Type
  6306 ;;  divisor         4    2[COMMON] unsigned long 
  6307 ;;  dividend        4    6[COMMON] unsigned long 
  6308 ;; Auto vars:     Size  Location     Type
  6309 ;;  quotient        4    1[BANK0 ] unsigned long 
  6310 ;;  counter         1    5[BANK0 ] unsigned char 
  6311 ;; Return value:  Size  Location     Type
  6312 ;;                  4    2[COMMON] unsigned long 
  6313 ;; Registers used:
  6314 ;;		wreg, status,2, status,0
  6315 ;; Tracked objects:
  6316 ;;		On entry : 0/0
  6317 ;;		On exit  : 0/0
  6318 ;;		Unchanged: 0/0
  6319 ;; Data sizes:     COMMON   BANK0   BANK1   BANK3   BANK2
  6320 ;;      Params:         8       0       0       0       0
  6321 ;;      Locals:         0       5       0       0       0
  6322 ;;      Temps:          0       1       0       0       0
  6323 ;;      Totals:         8       6       0       0       0
  6324 ;;Total ram usage:       14 bytes
  6325 ;; Hardware stack levels used: 1
  6326 ;; Hardware stack levels required when called: 1
  6327 ;; This function calls:
  6328 ;;		Nothing
  6329 ;; This function is called by:
  6330 ;;		_init_i2c
  6331 ;;		_init_uart
  6332 ;; This function uses a non-reentrant model
  6333 ;;
  6334                           
  6335     0B37                     ___lldiv:	
  6336                           ;psect for function ___lldiv
  6337                           
  6338     0B37                     l3949:	
  6339                           ;incstack = 0
  6340                           ; Regs used in ___lldiv: [wreg+status,2+status,0]
  6341                           
  6342     0B37  3000               	movlw	0
  6343     0B38  1283               	bcf	3,5	;RP0=0, select bank0
  6344     0B39  1303               	bcf	3,6	;RP1=0, select bank0
  6345     0B3A  00A4               	movwf	___lldiv@quotient+3
  6346     0B3B  3000               	movlw	0
  6347     0B3C  00A3               	movwf	___lldiv@quotient+2
  6348     0B3D  3000               	movlw	0
  6349     0B3E  00A2               	movwf	___lldiv@quotient+1
  6350     0B3F  3000               	movlw	0
  6351     0B40  00A1               	movwf	___lldiv@quotient
  6352     0B41  0875               	movf	___lldiv@divisor+3,w
  6353     0B42  0474               	iorwf	___lldiv@divisor+2,w
  6354     0B43  0473               	iorwf	___lldiv@divisor+1,w
  6355     0B44  0472               	iorwf	___lldiv@divisor,w
  6356     0B45  1903               	skipnz
  6357     0B46  2B48               	goto	u3491
  6358     0B47  2B49               	goto	u3490
  6359     0B48                     u3491:
  6360     0B48  2B96               	goto	l3969
  6361     0B49                     u3490:
  6362     0B49                     l3951:
  6363     0B49  01A5               	clrf	___lldiv@counter
  6364     0B4A  0AA5               	incf	___lldiv@counter,f
  6365     0B4B  2B59               	goto	l3955
  6366     0B4C                     l3953:
  6367     0B4C  3001               	movlw	1
  6368     0B4D  00A0               	movwf	??___lldiv
  6369     0B4E                     u3505:
  6370     0B4E  1003               	clrc
  6371     0B4F  0DF2               	rlf	___lldiv@divisor,f
  6372     0B50  0DF3               	rlf	___lldiv@divisor+1,f
  6373     0B51  0DF4               	rlf	___lldiv@divisor+2,f
  6374     0B52  0DF5               	rlf	___lldiv@divisor+3,f
  6375     0B53  0BA0               	decfsz	??___lldiv,f
  6376     0B54  2B4E               	goto	u3505
  6377     0B55  3001               	movlw	1
  6378     0B56  00A0               	movwf	??___lldiv
  6379     0B57  0820               	movf	??___lldiv,w
  6380     0B58  07A5               	addwf	___lldiv@counter,f
  6381     0B59                     l3955:
  6382     0B59  1FF5               	btfss	___lldiv@divisor+3,7
  6383     0B5A  2B5C               	goto	u3511
  6384     0B5B  2B5D               	goto	u3510
  6385     0B5C                     u3511:
  6386     0B5C  2B4C               	goto	l3953
  6387     0B5D                     u3510:
  6388     0B5D                     l3957:
  6389     0B5D  3001               	movlw	1
  6390     0B5E  00A0               	movwf	??___lldiv
  6391     0B5F                     u3525:
  6392     0B5F  1003               	clrc
  6393     0B60  0DA1               	rlf	___lldiv@quotient,f
  6394     0B61  0DA2               	rlf	___lldiv@quotient+1,f
  6395     0B62  0DA3               	rlf	___lldiv@quotient+2,f
  6396     0B63  0DA4               	rlf	___lldiv@quotient+3,f
  6397     0B64  0BA0               	decfsz	??___lldiv,f
  6398     0B65  2B5F               	goto	u3525
  6399     0B66                     l3959:
  6400     0B66  0875               	movf	___lldiv@divisor+3,w
  6401     0B67  0279               	subwf	___lldiv@dividend+3,w
  6402     0B68  1D03               	skipz
  6403     0B69  2B74               	goto	u3535
  6404     0B6A  0874               	movf	___lldiv@divisor+2,w
  6405     0B6B  0278               	subwf	___lldiv@dividend+2,w
  6406     0B6C  1D03               	skipz
  6407     0B6D  2B74               	goto	u3535
  6408     0B6E  0873               	movf	___lldiv@divisor+1,w
  6409     0B6F  0277               	subwf	___lldiv@dividend+1,w
  6410     0B70  1D03               	skipz
  6411     0B71  2B74               	goto	u3535
  6412     0B72  0872               	movf	___lldiv@divisor,w
  6413     0B73  0276               	subwf	___lldiv@dividend,w
  6414     0B74                     u3535:
  6415     0B74  1C03               	skipc
  6416     0B75  2B77               	goto	u3531
  6417     0B76  2B78               	goto	u3530
  6418     0B77                     u3531:
  6419     0B77  2B87               	goto	l3965
  6420     0B78                     u3530:
  6421     0B78                     l3961:
  6422     0B78  0872               	movf	___lldiv@divisor,w
  6423     0B79  02F6               	subwf	___lldiv@dividend,f
  6424     0B7A  0873               	movf	___lldiv@divisor+1,w
  6425     0B7B  1C03               	skipc
  6426     0B7C  0F73               	incfsz	___lldiv@divisor+1,w
  6427     0B7D  02F7               	subwf	___lldiv@dividend+1,f
  6428     0B7E  0874               	movf	___lldiv@divisor+2,w
  6429     0B7F  1C03               	skipc
  6430     0B80  0F74               	incfsz	___lldiv@divisor+2,w
  6431     0B81  02F8               	subwf	___lldiv@dividend+2,f
  6432     0B82  0875               	movf	___lldiv@divisor+3,w
  6433     0B83  1C03               	skipc
  6434     0B84  0F75               	incfsz	___lldiv@divisor+3,w
  6435     0B85  02F9               	subwf	___lldiv@dividend+3,f
  6436     0B86                     l3963:
  6437     0B86  1421               	bsf	___lldiv@quotient,0
  6438     0B87                     l3965:
  6439     0B87  3001               	movlw	1
  6440     0B88                     u3545:
  6441     0B88  1003               	clrc
  6442     0B89  0CF5               	rrf	___lldiv@divisor+3,f
  6443     0B8A  0CF4               	rrf	___lldiv@divisor+2,f
  6444     0B8B  0CF3               	rrf	___lldiv@divisor+1,f
  6445     0B8C  0CF2               	rrf	___lldiv@divisor,f
  6446     0B8D  3EFF               	addlw	-1
  6447     0B8E  1D03               	skipz
  6448     0B8F  2B88               	goto	u3545
  6449     0B90                     l3967:
  6450     0B90  3001               	movlw	1
  6451     0B91  02A5               	subwf	___lldiv@counter,f
  6452     0B92  1D03               	btfss	3,2
  6453     0B93  2B95               	goto	u3551
  6454     0B94  2B96               	goto	u3550
  6455     0B95                     u3551:
  6456     0B95  2B5D               	goto	l3957
  6457     0B96                     u3550:
  6458     0B96                     l3969:
  6459     0B96  0824               	movf	___lldiv@quotient+3,w
  6460     0B97  00F5               	movwf	?___lldiv+3
  6461     0B98  0823               	movf	___lldiv@quotient+2,w
  6462     0B99  00F4               	movwf	?___lldiv+2
  6463     0B9A  0822               	movf	___lldiv@quotient+1,w
  6464     0B9B  00F3               	movwf	?___lldiv+1
  6465     0B9C  0821               	movf	___lldiv@quotient,w
  6466     0B9D  00F2               	movwf	?___lldiv
  6467     0B9E                     l692:
  6468     0B9E  0008               	return
  6469     0B9F                     __end_of___lldiv:
  6470                           
  6471                           	psect	text18
  6472     1549                     __ptext18:	
  6473 ;; *************** function _init_ds1307 *****************
  6474 ;; Defined at:
  6475 ;;		line 5 in file "ds1307.c"
  6476 ;; Parameters:    Size  Location     Type
  6477 ;;		None
  6478 ;; Auto vars:     Size  Location     Type
  6479 ;;  dummy           1    6[COMMON] unsigned char 
  6480 ;; Return value:  Size  Location     Type
  6481 ;;                  1    wreg      void 
  6482 ;; Registers used:
  6483 ;;		wreg, status,2, status,0, pclath, cstack
  6484 ;; Tracked objects:
  6485 ;;		On entry : 0/0
  6486 ;;		On exit  : 0/0
  6487 ;;		Unchanged: 0/0
  6488 ;; Data sizes:     COMMON   BANK0   BANK1   BANK3   BANK2
  6489 ;;      Params:         0       0       0       0       0
  6490 ;;      Locals:         1       0       0       0       0
  6491 ;;      Temps:          0       0       0       0       0
  6492 ;;      Totals:         1       0       0       0       0
  6493 ;;Total ram usage:        1 bytes
  6494 ;; Hardware stack levels used: 1
  6495 ;; Hardware stack levels required when called: 5
  6496 ;; This function calls:
  6497 ;;		_read_ds1307
  6498 ;;		_write_ds1307
  6499 ;; This function is called by:
  6500 ;;		_init_config
  6501 ;; This function uses a non-reentrant model
  6502 ;;
  6503                           
  6504     1549                     _init_ds1307:	
  6505                           ;psect for function _init_ds1307
  6506                           
  6507     1549                     l3991:	
  6508                           ;incstack = 0
  6509                           ; Regs used in _init_ds1307: [wreg+status,2+status,0+pclath+cstack]
  6510                           
  6511                           
  6512                           ;ds1307.c: 7:     unsigned char dummy;;ds1307.c: 9:     dummy = read_ds1307(0x00);
  6513     1549  3000               	movlw	0
  6514     154A  160A  118A  26B9  160A  118A  	fcall	_read_ds1307
  6515     154F  00F6               	movwf	init_ds1307@dummy
  6516     1550                     l3993:
  6517                           
  6518                           ;ds1307.c: 10:     dummy = dummy & 0x7F;
  6519     1550  0876               	movf	init_ds1307@dummy,w
  6520     1551  397F               	andlw	127
  6521     1552  00F6               	movwf	init_ds1307@dummy
  6522     1553                     l3995:
  6523                           
  6524                           ;ds1307.c: 11:     write_ds1307(0x00, dummy);
  6525     1553  0876               	movf	init_ds1307@dummy,w
  6526     1554  00F3               	movwf	write_ds1307@data
  6527     1555  3000               	movlw	0
  6528     1556  160A  118A  2599  160A  118A  	fcall	_write_ds1307
  6529     155B                     l70:
  6530     155B  0008               	return
  6531     155C                     __end_of_init_ds1307:
  6532                           
  6533                           	psect	text19
  6534     1599                     __ptext19:	
  6535 ;; *************** function _write_ds1307 *****************
  6536 ;; Defined at:
  6537 ;;		line 29 in file "ds1307.c"
  6538 ;; Parameters:    Size  Location     Type
  6539 ;;  addr            1    wreg     unsigned char 
  6540 ;;  data            1    3[COMMON] unsigned char 
  6541 ;; Auto vars:     Size  Location     Type
  6542 ;;  addr            1    4[COMMON] unsigned char 
  6543 ;; Return value:  Size  Location     Type
  6544 ;;                  1    wreg      void 
  6545 ;; Registers used:
  6546 ;;		wreg, status,2, status,0, pclath, cstack
  6547 ;; Tracked objects:
  6548 ;;		On entry : 0/0
  6549 ;;		On exit  : 0/0
  6550 ;;		Unchanged: 0/0
  6551 ;; Data sizes:     COMMON   BANK0   BANK1   BANK3   BANK2
  6552 ;;      Params:         1       0       0       0       0
  6553 ;;      Locals:         1       0       0       0       0
  6554 ;;      Temps:          0       0       0       0       0
  6555 ;;      Totals:         2       0       0       0       0
  6556 ;;Total ram usage:        2 bytes
  6557 ;; Hardware stack levels used: 1
  6558 ;; Hardware stack levels required when called: 3
  6559 ;; This function calls:
  6560 ;;		_i2c_start
  6561 ;;		_i2c_stop
  6562 ;;		_i2c_write
  6563 ;; This function is called by:
  6564 ;;		_init_ds1307
  6565 ;;		_set_time
  6566 ;; This function uses a non-reentrant model
  6567 ;;
  6568                           
  6569     1599                     _write_ds1307:	
  6570                           ;psect for function _write_ds1307
  6571                           
  6572                           
  6573                           ;incstack = 0
  6574                           ; Regs used in _write_ds1307: [wreg+status,2+status,0+pclath+cstack]
  6575                           ;write_ds1307@addr stored from wreg
  6576     1599  00F4               	movwf	write_ds1307@addr
  6577     159A                     l3901:
  6578                           
  6579                           ;ds1307.c: 29: void write_ds1307(unsigned char addr, unsigned char data);ds1307.c: 30: {
      +                          ;ds1307.c: 31:     i2c_start();
  6580     159A  160A  118A  24D1  160A  118A  	fcall	_i2c_start
  6581                           
  6582                           ;ds1307.c: 32:     i2c_write(0b11010000);
  6583     159F  30D0               	movlw	208
  6584     15A0  160A  118A  24ED  160A  118A  	fcall	_i2c_write
  6585                           
  6586                           ;ds1307.c: 33:     i2c_write(addr);
  6587     15A5  0874               	movf	write_ds1307@addr,w
  6588     15A6  160A  118A  24ED  160A  118A  	fcall	_i2c_write
  6589                           
  6590                           ;ds1307.c: 34:     i2c_write(data);
  6591     15AB  0873               	movf	write_ds1307@data,w
  6592     15AC  160A  118A  24ED  160A  118A  	fcall	_i2c_write
  6593                           
  6594                           ;ds1307.c: 35:     i2c_stop();
  6595     15B1  160A  118A  24DA  160A  118A  	fcall	_i2c_stop
  6596     15B6                     l76:
  6597     15B6  0008               	return
  6598     15B7                     __end_of_write_ds1307:
  6599                           
  6600                           	psect	text20
  6601     14B4                     __ptext20:	
  6602 ;; *************** function _init_digital_keypad *****************
  6603 ;; Defined at:
  6604 ;;		line 4 in file "digital_keypad.c"
  6605 ;; Parameters:    Size  Location     Type
  6606 ;;		None
  6607 ;; Auto vars:     Size  Location     Type
  6608 ;;		None
  6609 ;; Return value:  Size  Location     Type
  6610 ;;                  1    wreg      void 
  6611 ;; Registers used:
  6612 ;;		wreg, status,2
  6613 ;; Tracked objects:
  6614 ;;		On entry : 0/0
  6615 ;;		On exit  : 0/0
  6616 ;;		Unchanged: 0/0
  6617 ;; Data sizes:     COMMON   BANK0   BANK1   BANK3   BANK2
  6618 ;;      Params:         0       0       0       0       0
  6619 ;;      Locals:         0       0       0       0       0
  6620 ;;      Temps:          0       0       0       0       0
  6621 ;;      Totals:         0       0       0       0       0
  6622 ;;Total ram usage:        0 bytes
  6623 ;; Hardware stack levels used: 1
  6624 ;; Hardware stack levels required when called: 1
  6625 ;; This function calls:
  6626 ;;		Nothing
  6627 ;; This function is called by:
  6628 ;;		_init_config
  6629 ;; This function uses a non-reentrant model
  6630 ;;
  6631                           
  6632     14B4                     _init_digital_keypad:	
  6633                           ;psect for function _init_digital_keypad
  6634                           
  6635     14B4                     l4003:	
  6636                           ;incstack = 0
  6637                           ; Regs used in _init_digital_keypad: [wreg+status,2]
  6638                           
  6639                           
  6640                           ;digital_keypad.c: 7:     TRISB = TRISB | 0x3F;
  6641     14B4  1683               	bsf	3,5	;RP0=1, select bank1
  6642     14B5  1303               	bcf	3,6	;RP1=0, select bank1
  6643     14B6  0806               	movf	6,w	;volatile
  6644     14B7  383F               	iorlw	63
  6645     14B8  0086               	movwf	6	;volatile
  6646     14B9                     l460:
  6647     14B9  0008               	return
  6648     14BA                     __end_of_init_digital_keypad:
  6649                           
  6650                           	psect	text21
  6651     150E                     __ptext21:	
  6652 ;; *************** function _init_clcd *****************
  6653 ;; Defined at:
  6654 ;;		line 37 in file "clcd.c"
  6655 ;; Parameters:    Size  Location     Type
  6656 ;;		None
  6657 ;; Auto vars:     Size  Location     Type
  6658 ;;		None
  6659 ;; Return value:  Size  Location     Type
  6660 ;;                  1    wreg      void 
  6661 ;; Registers used:
  6662 ;;		wreg, status,2, status,0, pclath, cstack
  6663 ;; Tracked objects:
  6664 ;;		On entry : 0/0
  6665 ;;		On exit  : 0/0
  6666 ;;		Unchanged: 0/0
  6667 ;; Data sizes:     COMMON   BANK0   BANK1   BANK3   BANK2
  6668 ;;      Params:         0       0       0       0       0
  6669 ;;      Locals:         0       0       0       0       0
  6670 ;;      Temps:          0       0       0       0       0
  6671 ;;      Totals:         0       0       0       0       0
  6672 ;;Total ram usage:        0 bytes
  6673 ;; Hardware stack levels used: 1
  6674 ;; Hardware stack levels required when called: 3
  6675 ;; This function calls:
  6676 ;;		_init_display_controller
  6677 ;; This function is called by:
  6678 ;;		_init_config
  6679 ;; This function uses a non-reentrant model
  6680 ;;
  6681                           
  6682     150E                     _init_clcd:	
  6683                           ;psect for function _init_clcd
  6684                           
  6685     150E                     l3973:	
  6686                           ;incstack = 0
  6687                           ; Regs used in _init_clcd: [wreg+status,2+status,0+pclath+cstack]
  6688                           
  6689                           
  6690                           ;clcd.c: 40:     TRISD = 0x00;
  6691     150E  1683               	bsf	3,5	;RP0=1, select bank1
  6692     150F  1303               	bcf	3,6	;RP1=0, select bank1
  6693     1510  0188               	clrf	8	;volatile
  6694     1511                     l3975:
  6695                           
  6696                           ;clcd.c: 43:     TRISE2 = 0;
  6697     1511  1109               	bcf	9,2	;volatile
  6698     1512                     l3977:
  6699                           
  6700                           ;clcd.c: 44:     TRISE1 = 0;
  6701     1512  1089               	bcf	9,1	;volatile
  6702     1513                     l3979:
  6703                           
  6704                           ;clcd.c: 46:     init_display_controller();
  6705     1513  120A  158A  222C  160A  118A  	fcall	_init_display_controller
  6706     1518                     l23:
  6707     1518  0008               	return
  6708     1519                     __end_of_init_clcd:
  6709                           
  6710                           	psect	text22
  6711     0A2C                     __ptext22:	
  6712 ;; *************** function _init_display_controller *****************
  6713 ;; Defined at:
  6714 ;;		line 16 in file "clcd.c"
  6715 ;; Parameters:    Size  Location     Type
  6716 ;;		None
  6717 ;; Auto vars:     Size  Location     Type
  6718 ;;		None
  6719 ;; Return value:  Size  Location     Type
  6720 ;;                  1    wreg      void 
  6721 ;; Registers used:
  6722 ;;		wreg, status,2, status,0, pclath, cstack
  6723 ;; Tracked objects:
  6724 ;;		On entry : 0/0
  6725 ;;		On exit  : 0/0
  6726 ;;		Unchanged: 0/0
  6727 ;; Data sizes:     COMMON   BANK0   BANK1   BANK3   BANK2
  6728 ;;      Params:         0       0       0       0       0
  6729 ;;      Locals:         0       0       0       0       0
  6730 ;;      Temps:          2       0       0       0       0
  6731 ;;      Totals:         2       0       0       0       0
  6732 ;;Total ram usage:        2 bytes
  6733 ;; Hardware stack levels used: 1
  6734 ;; Hardware stack levels required when called: 2
  6735 ;; This function calls:
  6736 ;;		_clcd_write
  6737 ;; This function is called by:
  6738 ;;		_init_clcd
  6739 ;; This function uses a non-reentrant model
  6740 ;;
  6741                           
  6742     0A2C                     _init_display_controller:	
  6743                           ;psect for function _init_display_controller
  6744                           
  6745     0A2C                     l3873:	
  6746                           ;incstack = 0
  6747                           ; Regs used in _init_display_controller: [wreg+status,2+status,0+pclath+cstack]
  6748                           
  6749                           
  6750                           ;clcd.c: 19:     _delay((unsigned long)((30)*(20000000/4000.0)));
  6751     0A2C  30C3               	movlw	195
  6752     0A2D  00F7               	movwf	??_init_display_controller+1
  6753     0A2E  30CD               	movlw	205
  6754     0A2F  00F6               	movwf	??_init_display_controller
  6755     0A30                     u5307:
  6756     0A30  0BF6               	decfsz	??_init_display_controller,f
  6757     0A31  2A30               	goto	u5307
  6758     0A32  0BF7               	decfsz	??_init_display_controller+1,f
  6759     0A33  2A30               	goto	u5307
  6760     0A34                     l3875:
  6761                           
  6762                           ;clcd.c: 22:     clcd_write(0x33, 0);
  6763     0A34  01F2               	clrf	clcd_write@mode
  6764     0A35  3033               	movlw	51
  6765     0A36  160A  118A  25B7  120A  158A  	fcall	_clcd_write
  6766     0A3B                     l3877:
  6767                           
  6768                           ;clcd.c: 23:     _delay((unsigned long)((4100)*(20000000/4000000.0)));
  6769     0A3B  301B               	movlw	27
  6770     0A3C  00F7               	movwf	??_init_display_controller+1
  6771     0A3D  309E               	movlw	158
  6772     0A3E  00F6               	movwf	??_init_display_controller
  6773     0A3F                     u5317:
  6774     0A3F  0BF6               	decfsz	??_init_display_controller,f
  6775     0A40  2A3F               	goto	u5317
  6776     0A41  0BF7               	decfsz	??_init_display_controller+1,f
  6777     0A42  2A3F               	goto	u5317
  6778     0A43  0000               	nop
  6779                           
  6780                           ;clcd.c: 24:     clcd_write(0x33, 0);
  6781     0A44  01F2               	clrf	clcd_write@mode
  6782     0A45  3033               	movlw	51
  6783     0A46  160A  118A  25B7  120A  158A  	fcall	_clcd_write
  6784     0A4B                     l3879:
  6785                           
  6786                           ;clcd.c: 25:     _delay((unsigned long)((100)*(20000000/4000000.0)));
  6787     0A4B  30A6               	movlw	166
  6788     0A4C  00F6               	movwf	??_init_display_controller
  6789     0A4D                     u5327:
  6790     0A4D  0BF6               	decfsz	??_init_display_controller,f
  6791     0A4E  2A4D               	goto	u5327
  6792     0A4F  0000               	nop
  6793     0A50                     l3881:
  6794                           
  6795                           ;clcd.c: 26:     clcd_write(0x33, 0);
  6796     0A50  01F2               	clrf	clcd_write@mode
  6797     0A51  3033               	movlw	51
  6798     0A52  160A  118A  25B7  120A  158A  	fcall	_clcd_write
  6799     0A57                     l3883:
  6800                           
  6801                           ;clcd.c: 27:     _delay((unsigned long)((1)*(20000000/4000000.0)));
  6802     0A57  2A58               	nop2	;2 cycle nop
  6803     0A58  2A59               	nop2	;2 cycle nop
  6804     0A59  0000               	nop
  6805     0A5A                     l3885:
  6806                           
  6807                           ;clcd.c: 29:     clcd_write(0x38, 0);
  6808     0A5A  01F2               	clrf	clcd_write@mode
  6809     0A5B  3038               	movlw	56
  6810     0A5C  160A  118A  25B7  120A  158A  	fcall	_clcd_write
  6811     0A61                     l3887:
  6812                           
  6813                           ;clcd.c: 30:     _delay((unsigned long)((100)*(20000000/4000000.0)));
  6814     0A61  30A6               	movlw	166
  6815     0A62  00F6               	movwf	??_init_display_controller
  6816     0A63                     u5337:
  6817     0A63  0BF6               	decfsz	??_init_display_controller,f
  6818     0A64  2A63               	goto	u5337
  6819     0A65  0000               	nop
  6820                           
  6821                           ;clcd.c: 31:     clcd_write(0x01, 0);
  6822     0A66  01F2               	clrf	clcd_write@mode
  6823     0A67  3001               	movlw	1
  6824     0A68  160A  118A  25B7  120A  158A  	fcall	_clcd_write
  6825     0A6D                     l3889:
  6826                           
  6827                           ;clcd.c: 32:     _delay((unsigned long)((500)*(20000000/4000000.0)));
  6828     0A6D  3004               	movlw	4
  6829     0A6E  00F7               	movwf	??_init_display_controller+1
  6830     0A6F  303D               	movlw	61
  6831     0A70  00F6               	movwf	??_init_display_controller
  6832     0A71                     u5347:
  6833     0A71  0BF6               	decfsz	??_init_display_controller,f
  6834     0A72  2A71               	goto	u5347
  6835     0A73  0BF7               	decfsz	??_init_display_controller+1,f
  6836     0A74  2A71               	goto	u5347
  6837     0A75  2A76               	nop2
  6838     0A76                     l3891:
  6839                           
  6840                           ;clcd.c: 33:     clcd_write(0x0C, 0);
  6841     0A76  01F2               	clrf	clcd_write@mode
  6842     0A77  300C               	movlw	12
  6843     0A78  160A  118A  25B7  120A  158A  	fcall	_clcd_write
  6844                           
  6845                           ;clcd.c: 34:     _delay((unsigned long)((100)*(20000000/4000000.0)));
  6846     0A7D  30A6               	movlw	166
  6847     0A7E  00F6               	movwf	??_init_display_controller
  6848     0A7F                     u5357:
  6849     0A7F  0BF6               	decfsz	??_init_display_controller,f
  6850     0A80  2A7F               	goto	u5357
  6851     0A81  0000               	nop
  6852     0A82                     l20:
  6853     0A82  0008               	return
  6854     0A83                     __end_of_init_display_controller:
  6855                           
  6856                           	psect	text23
  6857     14BA                     __ptext23:	
  6858 ;; *************** function _init_adc *****************
  6859 ;; Defined at:
  6860 ;;		line 3 in file "adc.c"
  6861 ;; Parameters:    Size  Location     Type
  6862 ;;		None
  6863 ;; Auto vars:     Size  Location     Type
  6864 ;;		None
  6865 ;; Return value:  Size  Location     Type
  6866 ;;                  1    wreg      void 
  6867 ;; Registers used:
  6868 ;;		None
  6869 ;; Tracked objects:
  6870 ;;		On entry : 0/0
  6871 ;;		On exit  : 0/0
  6872 ;;		Unchanged: 0/0
  6873 ;; Data sizes:     COMMON   BANK0   BANK1   BANK3   BANK2
  6874 ;;      Params:         0       0       0       0       0
  6875 ;;      Locals:         0       0       0       0       0
  6876 ;;      Temps:          0       0       0       0       0
  6877 ;;      Totals:         0       0       0       0       0
  6878 ;;Total ram usage:        0 bytes
  6879 ;; Hardware stack levels used: 1
  6880 ;; Hardware stack levels required when called: 1
  6881 ;; This function calls:
  6882 ;;		Nothing
  6883 ;; This function is called by:
  6884 ;;		_init_config
  6885 ;; This function uses a non-reentrant model
  6886 ;;
  6887                           
  6888     14BA                     _init_adc:	
  6889                           ;psect for function _init_adc
  6890                           
  6891     14BA                     l3989:	
  6892                           ;incstack = 0
  6893                           ; Regs used in _init_adc: []
  6894                           
  6895                           
  6896                           ;adc.c: 6:     ADFM = 1;
  6897     14BA  1683               	bsf	3,5	;RP0=1, select bank1
  6898     14BB  1303               	bcf	3,6	;RP1=0, select bank1
  6899     14BC  179F               	bsf	31,7	;volatile
  6900                           
  6901                           ;adc.c: 9:     ADON = 1;
  6902     14BD  1283               	bcf	3,5	;RP0=0, select bank0
  6903     14BE  1303               	bcf	3,6	;RP1=0, select bank0
  6904     14BF  141F               	bsf	31,0	;volatile
  6905     14C0                     l47:
  6906     14C0  0008               	return
  6907     14C1                     __end_of_init_adc:
  6908                           
  6909                           	psect	text24
  6910     0E7C                     __ptext24:	
  6911 ;; *************** function _download_log *****************
  6912 ;; Defined at:
  6913 ;;		line 328 in file "c_b_b.c"
  6914 ;; Parameters:    Size  Location     Type
  6915 ;;		None
  6916 ;; Auto vars:     Size  Location     Type
  6917 ;;  addr            1    7[COMMON] unsigned char 
  6918 ;; Return value:  Size  Location     Type
  6919 ;;                  1    wreg      void 
  6920 ;; Registers used:
  6921 ;;		wreg, fsr0l, fsr0h, status,2, status,0, btemp+1, pclath, cstack
  6922 ;; Tracked objects:
  6923 ;;		On entry : 0/0
  6924 ;;		On exit  : 0/0
  6925 ;;		Unchanged: 0/0
  6926 ;; Data sizes:     COMMON   BANK0   BANK1   BANK3   BANK2
  6927 ;;      Params:         0       0       0       0       0
  6928 ;;      Locals:         1       0       0       0       0
  6929 ;;      Temps:          1       0       0       0       0
  6930 ;;      Totals:         2       0       0       0       0
  6931 ;;Total ram usage:        2 bytes
  6932 ;; Hardware stack levels used: 1
  6933 ;; Hardware stack levels required when called: 5
  6934 ;; This function calls:
  6935 ;;		___bmul
  6936 ;;		_eeprom_at24c04_random_read
  6937 ;;		_puts
  6938 ;; This function is called by:
  6939 ;;		_main
  6940 ;; This function uses a non-reentrant model
  6941 ;;
  6942                           
  6943     0E7C                     _download_log:	
  6944                           ;psect for function _download_log
  6945                           
  6946     0E7C                     l4517:	
  6947                           ;incstack = 0
  6948                           ; Regs used in _download_log: [wreg-fsr0h+status,2+status,0+btemp+1+pclath+cstack]
  6949                           
  6950                           
  6951                           ;c_b_b.c: 331:     puts("  TIME       EV  SP\n");
  6952     0E7C  3000               	movlw	low (STR_27| (0+32768))
  6953     0E7D  00F3               	movwf	puts@s
  6954     0E7E  3087               	movlw	high (STR_27| (0+32768))
  6955     0E7F  00F4               	movwf	puts@s+1
  6956     0E80  160A  118A  2642  120A  158A  	fcall	_puts
  6957     0E85                     l4519:
  6958     0E85  2F35               	goto	l4575
  6959     0E86                     l4521:
  6960                           
  6961                           ;c_b_b.c: 333:     {;c_b_b.c: 334:         addr = d_pos * 10 + 5;
  6962     0E86  300A               	movlw	10
  6963     0E87  00F2               	movwf	___bmul@multiplicand
  6964     0E88  087B               	movf	_d_pos,w
  6965     0E89  160A  118A  2584  120A  158A  	fcall	___bmul
  6966     0E8E  3E05               	addlw	5
  6967     0E8F  00F7               	movwf	download_log@addr
  6968                           
  6969                           ;c_b_b.c: 336:         data[0] = eeprom_at24c04_random_read(addr++);
  6970     0E90  0877               	movf	download_log@addr,w
  6971     0E91  160A  118A  26E4  120A  158A  	fcall	_eeprom_at24c04_random_read
  6972     0E96  1683               	bsf	3,5	;RP0=1, select bank1
  6973     0E97  1303               	bcf	3,6	;RP1=0, select bank1
  6974     0E98  00D2               	movwf	_data^(0+128)
  6975     0E99                     l4523:
  6976     0E99  3001               	movlw	1
  6977     0E9A  00F6               	movwf	??_download_log
  6978     0E9B  0876               	movf	??_download_log,w
  6979     0E9C  07F7               	addwf	download_log@addr,f
  6980     0E9D                     l4525:
  6981                           
  6982                           ;c_b_b.c: 337:         data[1] = eeprom_at24c04_random_read(addr++);
  6983     0E9D  0877               	movf	download_log@addr,w
  6984     0E9E  160A  118A  26E4  120A  158A  	fcall	_eeprom_at24c04_random_read
  6985     0EA3  1683               	bsf	3,5	;RP0=1, select bank1
  6986     0EA4  1303               	bcf	3,6	;RP1=0, select bank1
  6987     0EA5  00D3               	movwf	(_data^(0+128)+1)
  6988     0EA6  3001               	movlw	1
  6989     0EA7  00F6               	movwf	??_download_log
  6990     0EA8  0876               	movf	??_download_log,w
  6991     0EA9  07F7               	addwf	download_log@addr,f
  6992     0EAA                     l4527:
  6993                           
  6994                           ;c_b_b.c: 338:         data[2] = ':';
  6995     0EAA  303A               	movlw	58
  6996     0EAB  00D4               	movwf	(_data^(0+128)+2)
  6997     0EAC                     l4529:
  6998                           
  6999                           ;c_b_b.c: 339:         data[3] = eeprom_at24c04_random_read(addr++);
  7000     0EAC  0877               	movf	download_log@addr,w
  7001     0EAD  160A  118A  26E4  120A  158A  	fcall	_eeprom_at24c04_random_read
  7002     0EB2  1683               	bsf	3,5	;RP0=1, select bank1
  7003     0EB3  1303               	bcf	3,6	;RP1=0, select bank1
  7004     0EB4  00D5               	movwf	(_data^(0+128)+3)
  7005     0EB5                     l4531:
  7006     0EB5  3001               	movlw	1
  7007     0EB6  00F6               	movwf	??_download_log
  7008     0EB7  0876               	movf	??_download_log,w
  7009     0EB8  07F7               	addwf	download_log@addr,f
  7010     0EB9                     l4533:
  7011                           
  7012                           ;c_b_b.c: 340:         data[4] = eeprom_at24c04_random_read(addr++);
  7013     0EB9  0877               	movf	download_log@addr,w
  7014     0EBA  160A  118A  26E4  120A  158A  	fcall	_eeprom_at24c04_random_read
  7015     0EBF  1683               	bsf	3,5	;RP0=1, select bank1
  7016     0EC0  1303               	bcf	3,6	;RP1=0, select bank1
  7017     0EC1  00D6               	movwf	(_data^(0+128)+4)
  7018     0EC2                     l4535:
  7019     0EC2  3001               	movlw	1
  7020     0EC3  00F6               	movwf	??_download_log
  7021     0EC4  0876               	movf	??_download_log,w
  7022     0EC5  07F7               	addwf	download_log@addr,f
  7023     0EC6                     l4537:
  7024                           
  7025                           ;c_b_b.c: 341:         data[5] = ':';
  7026     0EC6  303A               	movlw	58
  7027     0EC7  00D7               	movwf	(_data^(0+128)+5)
  7028     0EC8                     l4539:
  7029                           
  7030                           ;c_b_b.c: 342:         data[6] = eeprom_at24c04_random_read(addr++);
  7031     0EC8  0877               	movf	download_log@addr,w
  7032     0EC9  160A  118A  26E4  120A  158A  	fcall	_eeprom_at24c04_random_read
  7033     0ECE  1683               	bsf	3,5	;RP0=1, select bank1
  7034     0ECF  1303               	bcf	3,6	;RP1=0, select bank1
  7035     0ED0  00D8               	movwf	(_data^(0+128)+6)
  7036     0ED1                     l4541:
  7037     0ED1  3001               	movlw	1
  7038     0ED2  00F6               	movwf	??_download_log
  7039     0ED3  0876               	movf	??_download_log,w
  7040     0ED4  07F7               	addwf	download_log@addr,f
  7041                           
  7042                           ;c_b_b.c: 343:         data[7] = eeprom_at24c04_random_read(addr++);
  7043     0ED5  0877               	movf	download_log@addr,w
  7044     0ED6  160A  118A  26E4  120A  158A  	fcall	_eeprom_at24c04_random_read
  7045     0EDB  1683               	bsf	3,5	;RP0=1, select bank1
  7046     0EDC  1303               	bcf	3,6	;RP1=0, select bank1
  7047     0EDD  00D9               	movwf	(_data^(0+128)+7)
  7048     0EDE                     l4543:
  7049     0EDE  3001               	movlw	1
  7050     0EDF  00F6               	movwf	??_download_log
  7051     0EE0  0876               	movf	??_download_log,w
  7052     0EE1  07F7               	addwf	download_log@addr,f
  7053     0EE2                     l4545:
  7054                           
  7055                           ;c_b_b.c: 344:         data[8] = ' ';
  7056     0EE2  3020               	movlw	32
  7057     0EE3  00DA               	movwf	(_data^(0+128)+8)
  7058     0EE4                     l4547:
  7059                           
  7060                           ;c_b_b.c: 345:         data[9] = ' ';
  7061     0EE4  3020               	movlw	32
  7062     0EE5  00DB               	movwf	(_data^(0+128)+9)
  7063     0EE6                     l4549:
  7064                           
  7065                           ;c_b_b.c: 346:         data[10] = ' ';
  7066     0EE6  3020               	movlw	32
  7067     0EE7  00DC               	movwf	(_data^(0+128)+10)
  7068     0EE8                     l4551:
  7069                           
  7070                           ;c_b_b.c: 347:         data[11] = eeprom_at24c04_random_read(addr++);
  7071     0EE8  0877               	movf	download_log@addr,w
  7072     0EE9  160A  118A  26E4  120A  158A  	fcall	_eeprom_at24c04_random_read
  7073     0EEE  1683               	bsf	3,5	;RP0=1, select bank1
  7074     0EEF  1303               	bcf	3,6	;RP1=0, select bank1
  7075     0EF0  00DD               	movwf	(_data^(0+128)+11)
  7076     0EF1                     l4553:
  7077     0EF1  3001               	movlw	1
  7078     0EF2  00F6               	movwf	??_download_log
  7079     0EF3  0876               	movf	??_download_log,w
  7080     0EF4  07F7               	addwf	download_log@addr,f
  7081     0EF5                     l4555:
  7082                           
  7083                           ;c_b_b.c: 348:         data[12] = eeprom_at24c04_random_read(addr++);
  7084     0EF5  0877               	movf	download_log@addr,w
  7085     0EF6  160A  118A  26E4  120A  158A  	fcall	_eeprom_at24c04_random_read
  7086     0EFB  1683               	bsf	3,5	;RP0=1, select bank1
  7087     0EFC  1303               	bcf	3,6	;RP1=0, select bank1
  7088     0EFD  00DE               	movwf	(_data^(0+128)+12)
  7089     0EFE                     l4557:
  7090     0EFE  3001               	movlw	1
  7091     0EFF  00F6               	movwf	??_download_log
  7092     0F00  0876               	movf	??_download_log,w
  7093     0F01  07F7               	addwf	download_log@addr,f
  7094     0F02                     l4559:
  7095                           
  7096                           ;c_b_b.c: 349:         data[13] = ' ';
  7097     0F02  3020               	movlw	32
  7098     0F03  00DF               	movwf	(_data^(0+128)+13)
  7099     0F04                     l4561:
  7100                           
  7101                           ;c_b_b.c: 350:         data[14] = eeprom_at24c04_random_read(addr++);
  7102     0F04  0877               	movf	download_log@addr,w
  7103     0F05  160A  118A  26E4  120A  158A  	fcall	_eeprom_at24c04_random_read
  7104     0F0A  1683               	bsf	3,5	;RP0=1, select bank1
  7105     0F0B  1303               	bcf	3,6	;RP1=0, select bank1
  7106     0F0C  00E0               	movwf	(_data^(0+128)+14)
  7107     0F0D  3001               	movlw	1
  7108     0F0E  00F6               	movwf	??_download_log
  7109     0F0F  0876               	movf	??_download_log,w
  7110     0F10  07F7               	addwf	download_log@addr,f
  7111     0F11                     l4563:
  7112                           
  7113                           ;c_b_b.c: 351:         data[15] = eeprom_at24c04_random_read(addr++);
  7114     0F11  0877               	movf	download_log@addr,w
  7115     0F12  160A  118A  26E4  120A  158A  	fcall	_eeprom_at24c04_random_read
  7116     0F17  1683               	bsf	3,5	;RP0=1, select bank1
  7117     0F18  1303               	bcf	3,6	;RP1=0, select bank1
  7118     0F19  00E1               	movwf	(_data^(0+128)+15)
  7119     0F1A                     l4565:
  7120     0F1A  3001               	movlw	1
  7121     0F1B  00F6               	movwf	??_download_log
  7122     0F1C  0876               	movf	??_download_log,w
  7123     0F1D  07F7               	addwf	download_log@addr,f
  7124     0F1E                     l4567:
  7125                           
  7126                           ;c_b_b.c: 352:         data[16] = '\0';
  7127     0F1E  01E2               	clrf	(_data^(0+128)+16)
  7128     0F1F                     l4569:
  7129                           
  7130                           ;c_b_b.c: 355:         puts(data);
  7131     0F1F  30D2               	movlw	(low (_data| 0))& (0+255)
  7132     0F20  00F3               	movwf	puts@s
  7133     0F21  3000               	movlw	0
  7134     0F22  00F4               	movwf	puts@s+1
  7135     0F23  160A  118A  2642  120A  158A  	fcall	_puts
  7136     0F28                     l4571:
  7137                           
  7138                           ;c_b_b.c: 356:         puts("\n");
  7139     0F28  3013               	movlw	low ((STR_27+19)| (0+32768))
  7140     0F29  00F3               	movwf	puts@s
  7141     0F2A  3087               	movlw	high ((STR_27+19)| (0+32768))
  7142     0F2B  00F4               	movwf	puts@s+1
  7143     0F2C  160A  118A  2642  120A  158A  	fcall	_puts
  7144     0F31                     l4573:
  7145                           
  7146                           ;c_b_b.c: 357:     }
  7147     0F31  3001               	movlw	1
  7148     0F32  00F6               	movwf	??_download_log
  7149     0F33  0876               	movf	??_download_log,w
  7150     0F34  07FB               	addwf	_d_pos,f
  7151     0F35                     l4575:
  7152     0F35  087B               	movf	_d_pos,w
  7153     0F36  1283               	bcf	3,5	;RP0=0, select bank0
  7154     0F37  1303               	bcf	3,6	;RP1=0, select bank0
  7155     0F38  024E               	subwf	_pos,w
  7156     0F39  1803               	skipnc
  7157     0F3A  2F3C               	goto	u4251
  7158     0F3B  2F3D               	goto	u4250
  7159     0F3C                     u4251:
  7160     0F3C  2E86               	goto	l4521
  7161     0F3D                     u4250:
  7162     0F3D                     l388:
  7163     0F3D  0008               	return
  7164     0F3E                     __end_of_download_log:
  7165                           
  7166                           	psect	text25
  7167     1642                     __ptext25:	
  7168 ;; *************** function _puts *****************
  7169 ;; Defined at:
  7170 ;;		line 46 in file "uart.c"
  7171 ;; Parameters:    Size  Location     Type
  7172 ;;  s               2    3[COMMON] PTR const unsigned char 
  7173 ;;		 -> STR_28(2), STR_27(21), data(11), 
  7174 ;; Auto vars:     Size  Location     Type
  7175 ;;		None
  7176 ;; Return value:  Size  Location     Type
  7177 ;;                  1    wreg      void 
  7178 ;; Registers used:
  7179 ;;		wreg, fsr0l, fsr0h, status,2, status,0, btemp+1, pclath, cstack
  7180 ;; Tracked objects:
  7181 ;;		On entry : 0/0
  7182 ;;		On exit  : 0/0
  7183 ;;		Unchanged: 0/0
  7184 ;; Data sizes:     COMMON   BANK0   BANK1   BANK3   BANK2
  7185 ;;      Params:         2       0       0       0       0
  7186 ;;      Locals:         0       0       0       0       0
  7187 ;;      Temps:          0       0       0       0       0
  7188 ;;      Totals:         2       0       0       0       0
  7189 ;;Total ram usage:        2 bytes
  7190 ;; Hardware stack levels used: 1
  7191 ;; Hardware stack levels required when called: 2
  7192 ;; This function calls:
  7193 ;;		_putchar
  7194 ;; This function is called by:
  7195 ;;		_download_log
  7196 ;; This function uses a non-reentrant model
  7197 ;;
  7198                           
  7199     1642                     _puts:	
  7200                           ;psect for function _puts
  7201                           
  7202     1642                     l4139:	
  7203                           ;incstack = 0
  7204                           ; Regs used in _puts: [wreg-fsr0h+status,2+status,0+btemp+1+pclath+cstack]
  7205                           
  7206                           
  7207                           ;uart.c: 46: void puts(const char *s);uart.c: 47: {;uart.c: 48:     while (*s)
  7208     1642  2E57               	goto	l4145
  7209     1643                     l4141:
  7210                           
  7211                           ;uart.c: 49:     {;uart.c: 50:         putchar(*s++);
  7212     1643  0874               	movf	puts@s+1,w
  7213     1644  00FF               	movwf	btemp+1
  7214     1645  0873               	movf	puts@s,w
  7215     1646  0084               	movwf	4
  7216     1647  160A  118A  2000  160A  118A  	fcall	stringtab
  7217     164C  160A  118A  2503  160A  118A  	fcall	_putchar
  7218     1651                     l4143:
  7219     1651  3001               	movlw	1
  7220     1652  07F3               	addwf	puts@s,f
  7221     1653  1803               	skipnc
  7222     1654  0AF4               	incf	puts@s+1,f
  7223     1655  3000               	movlw	0
  7224     1656  07F4               	addwf	puts@s+1,f
  7225     1657                     l4145:
  7226                           
  7227                           ;uart.c: 48:     while (*s)
  7228     1657  0874               	movf	puts@s+1,w
  7229     1658  1283               	bcf	3,5	;RP0=0, select bank0
  7230     1659  1303               	bcf	3,6	;RP1=0, select bank0
  7231     165A  00FF               	movwf	btemp+1
  7232     165B  0873               	movf	puts@s,w
  7233     165C  0084               	movwf	4
  7234     165D  160A  118A  2000  160A  118A  	fcall	stringtab
  7235     1662  3A00               	xorlw	0
  7236     1663  1D03               	skipz
  7237     1664  2E66               	goto	u3751
  7238     1665  2E67               	goto	u3750
  7239     1666                     u3751:
  7240     1666  2E43               	goto	l4141
  7241     1667                     u3750:
  7242     1667                     l570:
  7243     1667  0008               	return
  7244     1668                     __end_of_puts:
  7245                           
  7246                           	psect	text26
  7247     1503                     __ptext26:	
  7248 ;; *************** function _putchar *****************
  7249 ;; Defined at:
  7250 ;;		line 31 in file "uart.c"
  7251 ;; Parameters:    Size  Location     Type
  7252 ;;  data            1    wreg     unsigned char 
  7253 ;; Auto vars:     Size  Location     Type
  7254 ;;  data            1    2[COMMON] unsigned char 
  7255 ;; Return value:  Size  Location     Type
  7256 ;;                  1    wreg      void 
  7257 ;; Registers used:
  7258 ;;		wreg
  7259 ;; Tracked objects:
  7260 ;;		On entry : 0/0
  7261 ;;		On exit  : 0/0
  7262 ;;		Unchanged: 0/0
  7263 ;; Data sizes:     COMMON   BANK0   BANK1   BANK3   BANK2
  7264 ;;      Params:         0       0       0       0       0
  7265 ;;      Locals:         1       0       0       0       0
  7266 ;;      Temps:          0       0       0       0       0
  7267 ;;      Totals:         1       0       0       0       0
  7268 ;;Total ram usage:        1 bytes
  7269 ;; Hardware stack levels used: 1
  7270 ;; Hardware stack levels required when called: 1
  7271 ;; This function calls:
  7272 ;;		Nothing
  7273 ;; This function is called by:
  7274 ;;		_puts
  7275 ;; This function uses a non-reentrant model
  7276 ;;
  7277                           
  7278     1503                     _putchar:	
  7279                           ;psect for function _putchar
  7280                           
  7281                           
  7282                           ;incstack = 0
  7283                           ; Regs used in _putchar: [wreg]
  7284                           ;putchar@data stored from wreg
  7285     1503  00F2               	movwf	putchar@data
  7286     1504                     l3933:
  7287                           
  7288                           ;uart.c: 31: void putchar(unsigned char data);uart.c: 32: {;uart.c: 34:     TXREG = data
      +                          ;
  7289     1504  0872               	movf	putchar@data,w
  7290     1505  1283               	bcf	3,5	;RP0=0, select bank0
  7291     1506  1303               	bcf	3,6	;RP1=0, select bank0
  7292     1507  0099               	movwf	25	;volatile
  7293     1508                     l562:	
  7294                           ;uart.c: 40:     } while (TXIF != 1);
  7295                           
  7296     1508  1E0C               	btfss	12,4	;volatile
  7297     1509  2D0B               	goto	u3461
  7298     150A  2D0C               	goto	u3460
  7299     150B                     u3461:
  7300     150B  2D08               	goto	l562
  7301     150C                     u3460:
  7302     150C                     l563:
  7303                           
  7304                           ;uart.c: 43:     TXIF = 0;
  7305     150C  120C               	bcf	12,4	;volatile
  7306     150D                     l564:
  7307     150D  0008               	return
  7308     150E                     __end_of_putchar:
  7309                           
  7310                           	psect	text27
  7311     16E4                     __ptext27:	
  7312 ;; *************** function _eeprom_at24c04_random_read *****************
  7313 ;; Defined at:
  7314 ;;		line 2 in file "at24c04.c"
  7315 ;; Parameters:    Size  Location     Type
  7316 ;;  memory_loc      1    wreg     unsigned char 
  7317 ;; Auto vars:     Size  Location     Type
  7318 ;;  memory_loc      1    4[COMMON] unsigned char 
  7319 ;;  received_dat    1    5[COMMON] unsigned char 
  7320 ;; Return value:  Size  Location     Type
  7321 ;;                  1    wreg      unsigned char 
  7322 ;; Registers used:
  7323 ;;		wreg, status,2, status,0, pclath, cstack
  7324 ;; Tracked objects:
  7325 ;;		On entry : 0/0
  7326 ;;		On exit  : 0/0
  7327 ;;		Unchanged: 0/0
  7328 ;; Data sizes:     COMMON   BANK0   BANK1   BANK3   BANK2
  7329 ;;      Params:         0       0       0       0       0
  7330 ;;      Locals:         2       0       0       0       0
  7331 ;;      Temps:          0       0       0       0       0
  7332 ;;      Totals:         2       0       0       0       0
  7333 ;;Total ram usage:        2 bytes
  7334 ;; Hardware stack levels used: 1
  7335 ;; Hardware stack levels required when called: 4
  7336 ;; This function calls:
  7337 ;;		_i2c_read
  7338 ;;		_i2c_rep_start
  7339 ;;		_i2c_start
  7340 ;;		_i2c_stop
  7341 ;;		_i2c_write
  7342 ;; This function is called by:
  7343 ;;		_login
  7344 ;;		_read_event
  7345 ;;		_download_log
  7346 ;; This function uses a non-reentrant model
  7347 ;;
  7348                           
  7349     16E4                     _eeprom_at24c04_random_read:	
  7350                           ;psect for function _eeprom_at24c04_random_read
  7351                           
  7352                           
  7353                           ;incstack = 0
  7354                           ; Regs used in _eeprom_at24c04_random_read: [wreg+status,2+status,0+pclath+cstack]
  7355                           ;eeprom_at24c04_random_read@memory_loc stored from wreg
  7356     16E4  00F4               	movwf	eeprom_at24c04_random_read@memory_loc
  7357     16E5                     l3913:
  7358     16E5                     l3915:
  7359                           
  7360                           ;at24c04.c: 6:     i2c_start();
  7361     16E5  160A  118A  24D1  160A  118A  	fcall	_i2c_start
  7362     16EA                     l3917:
  7363                           
  7364                           ;at24c04.c: 7:     i2c_write(0xA0);
  7365     16EA  30A0               	movlw	160
  7366     16EB  160A  118A  24ED  160A  118A  	fcall	_i2c_write
  7367     16F0                     l3919:
  7368                           
  7369                           ;at24c04.c: 8:     i2c_write(memory_loc);
  7370     16F0  0874               	movf	eeprom_at24c04_random_read@memory_loc,w
  7371     16F1  160A  118A  24ED  160A  118A  	fcall	_i2c_write
  7372     16F6                     l3921:
  7373                           
  7374                           ;at24c04.c: 9:     i2c_rep_start();
  7375     16F6  160A  118A  24F8  160A  118A  	fcall	_i2c_rep_start
  7376     16FB                     l3923:
  7377                           
  7378                           ;at24c04.c: 10:     i2c_write(0xA1);
  7379     16FB  30A1               	movlw	161
  7380     16FC  160A  118A  24ED  160A  118A  	fcall	_i2c_write
  7381     1701                     l3925:
  7382                           
  7383                           ;at24c04.c: 11:     received_data = i2c_read(0);
  7384     1701  3000               	movlw	0
  7385     1702  160A  118A  25D7  160A  118A  	fcall	_i2c_read
  7386     1707  00F5               	movwf	eeprom_at24c04_random_read@received_data
  7387     1708                     l3927:
  7388                           
  7389                           ;at24c04.c: 12:     i2c_stop();
  7390     1708  160A  118A  24DA  160A  118A  	fcall	_i2c_stop
  7391     170D                     l3929:
  7392                           
  7393                           ;at24c04.c: 14:     return received_data;
  7394     170D  0875               	movf	eeprom_at24c04_random_read@received_data,w
  7395     170E                     l491:
  7396     170E  0008               	return
  7397     170F                     __end_of_eeprom_at24c04_random_read:
  7398                           
  7399                           	psect	text28
  7400     068F                     __ptext28:	
  7401 ;; *************** function _display_dash_board *****************
  7402 ;; Defined at:
  7403 ;;		line 61 in file "c_b_b.c"
  7404 ;; Parameters:    Size  Location     Type
  7405 ;;  event           1    wreg     PTR unsigned char 
  7406 ;;		 -> main@event(3), 
  7407 ;;  speed           1    5[BANK0 ] unsigned char 
  7408 ;; Auto vars:     Size  Location     Type
  7409 ;;  event           1    8[BANK0 ] PTR unsigned char 
  7410 ;;		 -> main@event(3), 
  7411 ;; Return value:  Size  Location     Type
  7412 ;;                  1    wreg      void 
  7413 ;; Registers used:
  7414 ;;		wreg, fsr0l, fsr0h, status,2, status,0, btemp+1, pclath, cstack
  7415 ;; Tracked objects:
  7416 ;;		On entry : 0/0
  7417 ;;		On exit  : 0/0
  7418 ;;		Unchanged: 0/0
  7419 ;; Data sizes:     COMMON   BANK0   BANK1   BANK3   BANK2
  7420 ;;      Params:         0       1       0       0       0
  7421 ;;      Locals:         0       1       0       0       0
  7422 ;;      Temps:          0       2       0       0       0
  7423 ;;      Totals:         0       4       0       0       0
  7424 ;;Total ram usage:        4 bytes
  7425 ;; Hardware stack levels used: 1
  7426 ;; Hardware stack levels required when called: 6
  7427 ;; This function calls:
  7428 ;;		___awdiv
  7429 ;;		___awmod
  7430 ;;		_clcd_print
  7431 ;;		_clcd_putch
  7432 ;;		_display_time
  7433 ;;		_get_time
  7434 ;;		_strcmp
  7435 ;; This function is called by:
  7436 ;;		_main
  7437 ;; This function uses a non-reentrant model
  7438 ;;
  7439                           
  7440     068F                     _display_dash_board:	
  7441                           ;psect for function _display_dash_board
  7442                           
  7443                           
  7444                           ;incstack = 0
  7445                           ; Regs used in _display_dash_board: [wreg-fsr0h+status,2+status,0+btemp+1+pclath+cstack]
  7446                           ;display_dash_board@event stored from wreg
  7447     068F  1283               	bcf	3,5	;RP0=0, select bank0
  7448     0690  1303               	bcf	3,6	;RP1=0, select bank0
  7449     0691  00A8               	movwf	display_dash_board@event
  7450     0692                     l4297:
  7451                           
  7452                           ;c_b_b.c: 61: void display_dash_board(unsigned char event[], char speed);c_b_b.c: 62: {;
      +                          c_b_b.c: 63:     clcd_print("  TIME     EV SP", (0x80 + 0));
  7453     0692  3037               	movlw	low (STR_12| (0+32768))
  7454     0693  00F6               	movwf	clcd_print@str
  7455     0694  3087               	movlw	high (STR_12| (0+32768))
  7456     0695  00F7               	movwf	clcd_print@str+1
  7457     0696  3080               	movlw	128
  7458     0697  00F8               	movwf	clcd_print@addr
  7459     0698  160A  118A  273D  120A  118A  	fcall	_clcd_print
  7460     069D                     l4299:
  7461                           
  7462                           ;c_b_b.c: 64:     get_time();
  7463     069D  120A  158A  21DF  120A  118A  	fcall	_get_time
  7464     06A2                     l4301:
  7465                           
  7466                           ;c_b_b.c: 65:     display_time();
  7467     06A2  120A  158A  2192  120A  118A  	fcall	_display_time
  7468                           
  7469                           ;c_b_b.c: 66:     clcd_print(event, (0xC0 + 11));
  7470     06A7  1283               	bcf	3,5	;RP0=0, select bank0
  7471     06A8  1303               	bcf	3,6	;RP1=0, select bank0
  7472     06A9  0828               	movf	display_dash_board@event,w
  7473     06AA  00F6               	movwf	clcd_print@str
  7474     06AB  3001               	movlw	1
  7475     06AC  00F7               	movwf	clcd_print@str+1
  7476     06AD  30CB               	movlw	203
  7477     06AE  00F8               	movwf	clcd_print@addr
  7478     06AF  160A  118A  273D  120A  118A  	fcall	_clcd_print
  7479                           
  7480                           ;c_b_b.c: 68:     if(strcmp(event, "ON") == 0)
  7481     06B4  300D               	movlw	low (STR_13| (0+32768))
  7482     06B5  00F2               	movwf	strcmp@s2
  7483     06B6  3088               	movlw	high (STR_13| (0+32768))
  7484     06B7  00F3               	movwf	strcmp@s2+1
  7485     06B8  1283               	bcf	3,5	;RP0=0, select bank0
  7486     06B9  1303               	bcf	3,6	;RP1=0, select bank0
  7487     06BA  0828               	movf	display_dash_board@event,w
  7488     06BB  160A  118A  279C  120A  118A  	fcall	_strcmp
  7489     06C0  0872               	movf	?_strcmp,w
  7490     06C1  0473               	iorwf	?_strcmp+1,w
  7491     06C2  1D03               	btfss	3,2
  7492     06C3  2EC5               	goto	u4011
  7493     06C4  2EC6               	goto	u4010
  7494     06C5                     u4011:
  7495     06C5  2EC9               	goto	l4305
  7496     06C6                     u4010:
  7497     06C6                     l4303:
  7498                           
  7499                           ;c_b_b.c: 69:     {;c_b_b.c: 70:         speed = 0;
  7500     06C6  1283               	bcf	3,5	;RP0=0, select bank0
  7501     06C7  1303               	bcf	3,6	;RP1=0, select bank0
  7502     06C8  01A5               	clrf	display_dash_board@speed
  7503     06C9                     l4305:
  7504                           
  7505                           ;c_b_b.c: 72:     clcd_putch(speed / 10 + '0', (0xC0 + 14));
  7506     06C9  30CE               	movlw	206
  7507     06CA  00F9               	movwf	clcd_putch@addr
  7508     06CB  300A               	movlw	10
  7509     06CC  00F2               	movwf	___awdiv@divisor
  7510     06CD  3000               	movlw	0
  7511     06CE  00F3               	movwf	___awdiv@divisor+1
  7512     06CF  1283               	bcf	3,5	;RP0=0, select bank0
  7513     06D0  1303               	bcf	3,6	;RP1=0, select bank0
  7514     06D1  0825               	movf	display_dash_board@speed,w
  7515     06D2  00A6               	movwf	??_display_dash_board
  7516     06D3  01A7               	clrf	??_display_dash_board+1
  7517     06D4  0826               	movf	??_display_dash_board,w
  7518     06D5  00F4               	movwf	___awdiv@dividend
  7519     06D6  0827               	movf	??_display_dash_board+1,w
  7520     06D7  00F5               	movwf	___awdiv@dividend+1
  7521     06D8  120A  158A  239F  120A  118A  	fcall	___awdiv
  7522     06DD  0872               	movf	?___awdiv,w
  7523     06DE  3E30               	addlw	48
  7524     06DF  160A  118A  256F  120A  118A  	fcall	_clcd_putch
  7525     06E4                     l4307:
  7526                           
  7527                           ;c_b_b.c: 73:     clcd_putch(speed % 10 + '0', (0xC0 + 15));
  7528     06E4  30CF               	movlw	207
  7529     06E5  00F9               	movwf	clcd_putch@addr
  7530     06E6  300A               	movlw	10
  7531     06E7  00F2               	movwf	___awmod@divisor
  7532     06E8  3000               	movlw	0
  7533     06E9  00F3               	movwf	___awmod@divisor+1
  7534     06EA  1283               	bcf	3,5	;RP0=0, select bank0
  7535     06EB  1303               	bcf	3,6	;RP1=0, select bank0
  7536     06EC  0825               	movf	display_dash_board@speed,w
  7537     06ED  00A6               	movwf	??_display_dash_board
  7538     06EE  01A7               	clrf	??_display_dash_board+1
  7539     06EF  0826               	movf	??_display_dash_board,w
  7540     06F0  00F4               	movwf	___awmod@dividend
  7541     06F1  0827               	movf	??_display_dash_board+1,w
  7542     06F2  00F5               	movwf	___awmod@dividend+1
  7543     06F3  120A  158A  2283  120A  118A  	fcall	___awmod
  7544     06F8  0872               	movf	?___awmod,w
  7545     06F9  3E30               	addlw	48
  7546     06FA  160A  118A  256F  120A  118A  	fcall	_clcd_putch
  7547     06FF                     l319:
  7548     06FF  0008               	return
  7549     0700                     __end_of_display_dash_board:
  7550                           
  7551                           	psect	text29
  7552     179C                     __ptext29:	
  7553 ;; *************** function _strcmp *****************
  7554 ;; Defined at:
  7555 ;;		line 33 in file "/Applications/microchip/xc8/v2.41/pic/sources/c90/common/strcmp.c"
  7556 ;; Parameters:    Size  Location     Type
  7557 ;;  s1              1    wreg     PTR const unsigned char 
  7558 ;;		 -> main@event(3), 
  7559 ;;  s2              2    2[COMMON] PTR const unsigned char 
  7560 ;;		 -> STR_13(3), 
  7561 ;; Auto vars:     Size  Location     Type
  7562 ;;  s1              1    7[COMMON] PTR const unsigned char 
  7563 ;;		 -> main@event(3), 
  7564 ;;  r               1    6[COMMON] char 
  7565 ;; Return value:  Size  Location     Type
  7566 ;;                  2    2[COMMON] int 
  7567 ;; Registers used:
  7568 ;;		wreg, fsr0l, fsr0h, status,2, status,0, btemp+1, pclath
  7569 ;; Tracked objects:
  7570 ;;		On entry : 0/0
  7571 ;;		On exit  : 0/0
  7572 ;;		Unchanged: 0/0
  7573 ;; Data sizes:     COMMON   BANK0   BANK1   BANK3   BANK2
  7574 ;;      Params:         2       0       0       0       0
  7575 ;;      Locals:         2       0       0       0       0
  7576 ;;      Temps:          2       0       0       0       0
  7577 ;;      Totals:         6       0       0       0       0
  7578 ;;Total ram usage:        6 bytes
  7579 ;; Hardware stack levels used: 2
  7580 ;; Hardware stack levels required when called: 1
  7581 ;; This function calls:
  7582 ;;		Nothing
  7583 ;; This function is called by:
  7584 ;;		_display_dash_board
  7585 ;; This function uses a non-reentrant model
  7586 ;;
  7587                           
  7588     179C                     _strcmp:	
  7589                           ;psect for function _strcmp
  7590                           
  7591                           
  7592                           ;incstack = 0
  7593                           ; Regs used in _strcmp: [wreg-fsr0h+status,2+status,0+btemp+1+pclath]
  7594                           ;strcmp@s1 stored from wreg
  7595     179C  00F7               	movwf	strcmp@s1
  7596     179D                     l4037:
  7597     179D  2FA8               	goto	l4041
  7598     179E                     l4039:
  7599     179E  3001               	movlw	1
  7600     179F  00F4               	movwf	??_strcmp
  7601     17A0  0874               	movf	??_strcmp,w
  7602     17A1  07F7               	addwf	strcmp@s1,f
  7603     17A2  3001               	movlw	1
  7604     17A3  07F2               	addwf	strcmp@s2,f
  7605     17A4  1803               	skipnc
  7606     17A5  0AF3               	incf	strcmp@s2+1,f
  7607     17A6  3000               	movlw	0
  7608     17A7  07F3               	addwf	strcmp@s2+1,f
  7609     17A8                     l4041:
  7610     17A8  0873               	movf	strcmp@s2+1,w
  7611     17A9  1283               	bcf	3,5	;RP0=0, select bank0
  7612     17AA  1303               	bcf	3,6	;RP1=0, select bank0
  7613     17AB  00FF               	movwf	btemp+1
  7614     17AC  0872               	movf	strcmp@s2,w
  7615     17AD  0084               	movwf	4
  7616     17AE  160A  118A  2000  160A  118A  	fcall	stringtab
  7617     17B3  00F4               	movwf	??_strcmp
  7618     17B4  0877               	movf	strcmp@s1,w
  7619     17B5  0084               	movwf	4
  7620     17B6  1783               	bsf	3,7	;select IRP bank2
  7621     17B7  0800               	movf	0,w
  7622     17B8  00F5               	movwf	??_strcmp+1
  7623     17B9  0874               	movf	??_strcmp,w
  7624     17BA  0275               	subwf	??_strcmp+1,w
  7625     17BB  00F6               	movwf	strcmp@r
  7626     17BC  0876               	movf	strcmp@r,w
  7627     17BD  1D03               	btfss	3,2
  7628     17BE  2FC0               	goto	u3621
  7629     17BF  2FC1               	goto	u3620
  7630     17C0                     u3621:
  7631     17C0  2FC8               	goto	l4045
  7632     17C1                     u3620:
  7633     17C1                     l4043:
  7634     17C1  0877               	movf	strcmp@s1,w
  7635     17C2  0084               	movwf	4
  7636     17C3  0800               	movf	0,w
  7637     17C4  1D03               	btfss	3,2
  7638     17C5  2FC7               	goto	u3631
  7639     17C6  2FC8               	goto	u3630
  7640     17C7                     u3631:
  7641     17C7  2F9E               	goto	l4039
  7642     17C8                     u3630:
  7643     17C8                     l4045:
  7644     17C8  0876               	movf	strcmp@r,w
  7645     17C9  00F2               	movwf	?_strcmp
  7646     17CA  01F3               	clrf	?_strcmp+1
  7647     17CB  1BF2               	btfsc	?_strcmp,7
  7648     17CC  03F3               	decf	?_strcmp+1,f
  7649     17CD                     l1112:
  7650     17CD  0008               	return
  7651     17CE                     __end_of_strcmp:
  7652                           
  7653                           	psect	text30
  7654     09DF                     __ptext30:	
  7655 ;; *************** function _get_time *****************
  7656 ;; Defined at:
  7657 ;;		line 39 in file "c_b_b.c"
  7658 ;; Parameters:    Size  Location     Type
  7659 ;;		None
  7660 ;; Auto vars:     Size  Location     Type
  7661 ;;		None
  7662 ;; Return value:  Size  Location     Type
  7663 ;;                  1    wreg      void 
  7664 ;; Registers used:
  7665 ;;		wreg, status,2, status,0, pclath, cstack
  7666 ;; Tracked objects:
  7667 ;;		On entry : 0/0
  7668 ;;		On exit  : 0/0
  7669 ;;		Unchanged: 0/0
  7670 ;; Data sizes:     COMMON   BANK0   BANK1   BANK3   BANK2
  7671 ;;      Params:         0       0       0       0       0
  7672 ;;      Locals:         0       0       0       0       0
  7673 ;;      Temps:          1       0       0       0       0
  7674 ;;      Totals:         1       0       0       0       0
  7675 ;;Total ram usage:        1 bytes
  7676 ;; Hardware stack levels used: 1
  7677 ;; Hardware stack levels required when called: 5
  7678 ;; This function calls:
  7679 ;;		_read_ds1307
  7680 ;; This function is called by:
  7681 ;;		_display_dash_board
  7682 ;;		_log_car_event
  7683 ;;		_set_time
  7684 ;; This function uses a non-reentrant model
  7685 ;;
  7686                           
  7687     09DF                     _get_time:	
  7688                           ;psect for function _get_time
  7689                           
  7690     09DF                     l4021:	
  7691                           ;incstack = 0
  7692                           ; Regs used in _get_time: [wreg+status,2+status,0+pclath+cstack]
  7693                           
  7694                           
  7695                           ;c_b_b.c: 41:     clock_reg[0] = read_ds1307(0x02);
  7696     09DF  3002               	movlw	2
  7697     09E0  160A  118A  26B9  120A  158A  	fcall	_read_ds1307
  7698     09E5  1283               	bcf	3,5	;RP0=0, select bank0
  7699     09E6  1303               	bcf	3,6	;RP1=0, select bank0
  7700     09E7  00B9               	movwf	_clock_reg
  7701                           
  7702                           ;c_b_b.c: 42:     clock_reg[1] = read_ds1307(0x01);
  7703     09E8  3001               	movlw	1
  7704     09E9  160A  118A  26B9  120A  158A  	fcall	_read_ds1307
  7705     09EE  1283               	bcf	3,5	;RP0=0, select bank0
  7706     09EF  1303               	bcf	3,6	;RP1=0, select bank0
  7707     09F0  00BA               	movwf	_clock_reg+1
  7708                           
  7709                           ;c_b_b.c: 43:     clock_reg[2] = read_ds1307(0x00);
  7710     09F1  3000               	movlw	0
  7711     09F2  160A  118A  26B9  120A  158A  	fcall	_read_ds1307
  7712     09F7  1283               	bcf	3,5	;RP0=0, select bank0
  7713     09F8  1303               	bcf	3,6	;RP1=0, select bank0
  7714     09F9  00BB               	movwf	_clock_reg+2
  7715     09FA                     l4023:
  7716                           
  7717                           ;c_b_b.c: 48:     time[0] = ((clock_reg[0] >> 4) & 0x03) + '0';
  7718     09FA  0839               	movf	_clock_reg,w
  7719     09FB  00F6               	movwf	??_get_time
  7720     09FC  3004               	movlw	4
  7721     09FD                     u3595:
  7722     09FD  1003               	clrc
  7723     09FE  0CF6               	rrf	??_get_time,f
  7724     09FF  3EFF               	addlw	-1
  7725     0A00  1D03               	skipz
  7726     0A01  29FD               	goto	u3595
  7727     0A02  0876               	movf	??_get_time,w
  7728     0A03  3903               	andlw	3
  7729     0A04  3E30               	addlw	48
  7730     0A05  00C3               	movwf	_time
  7731     0A06                     l4025:
  7732                           
  7733                           ;c_b_b.c: 49:     time[1] = (clock_reg[0] & 0x0F) + '0';
  7734     0A06  0839               	movf	_clock_reg,w
  7735     0A07  390F               	andlw	15
  7736     0A08  3E30               	addlw	48
  7737     0A09  00C4               	movwf	_time+1
  7738     0A0A                     l4027:
  7739                           
  7740                           ;c_b_b.c: 52:     time[2] = ((clock_reg[1] >> 4) & 0x07) + '0';
  7741     0A0A  083A               	movf	_clock_reg+1,w
  7742     0A0B  00F6               	movwf	??_get_time
  7743     0A0C  3004               	movlw	4
  7744     0A0D                     u3605:
  7745     0A0D  1003               	clrc
  7746     0A0E  0CF6               	rrf	??_get_time,f
  7747     0A0F  3EFF               	addlw	-1
  7748     0A10  1D03               	skipz
  7749     0A11  2A0D               	goto	u3605
  7750     0A12  0876               	movf	??_get_time,w
  7751     0A13  3907               	andlw	7
  7752     0A14  3E30               	addlw	48
  7753     0A15  00C5               	movwf	_time+2
  7754     0A16                     l4029:
  7755                           
  7756                           ;c_b_b.c: 53:     time[3] = (clock_reg[1] & 0x0F) + '0';
  7757     0A16  083A               	movf	_clock_reg+1,w
  7758     0A17  390F               	andlw	15
  7759     0A18  3E30               	addlw	48
  7760     0A19  00C6               	movwf	_time+3
  7761     0A1A                     l4031:
  7762                           
  7763                           ;c_b_b.c: 56:     time[4] = ((clock_reg[2] >> 4) & 0x07) + '0';
  7764     0A1A  083B               	movf	_clock_reg+2,w
  7765     0A1B  00F6               	movwf	??_get_time
  7766     0A1C  3004               	movlw	4
  7767     0A1D                     u3615:
  7768     0A1D  1003               	clrc
  7769     0A1E  0CF6               	rrf	??_get_time,f
  7770     0A1F  3EFF               	addlw	-1
  7771     0A20  1D03               	skipz
  7772     0A21  2A1D               	goto	u3615
  7773     0A22  0876               	movf	??_get_time,w
  7774     0A23  3907               	andlw	7
  7775     0A24  3E30               	addlw	48
  7776     0A25  00C7               	movwf	_time+4
  7777     0A26                     l4033:
  7778                           
  7779                           ;c_b_b.c: 57:     time[5] = (clock_reg[2] & 0x0F) + '0';
  7780     0A26  083B               	movf	_clock_reg+2,w
  7781     0A27  390F               	andlw	15
  7782     0A28  3E30               	addlw	48
  7783     0A29  00C8               	movwf	_time+5
  7784     0A2A                     l4035:
  7785                           
  7786                           ;c_b_b.c: 58:     time[6] = '\0';
  7787     0A2A  01C9               	clrf	_time+6
  7788     0A2B                     l315:
  7789     0A2B  0008               	return
  7790     0A2C                     __end_of_get_time:
  7791                           
  7792                           	psect	text31
  7793     16B9                     __ptext31:	
  7794 ;; *************** function _read_ds1307 *****************
  7795 ;; Defined at:
  7796 ;;		line 14 in file "ds1307.c"
  7797 ;; Parameters:    Size  Location     Type
  7798 ;;  addr            1    wreg     unsigned char 
  7799 ;; Auto vars:     Size  Location     Type
  7800 ;;  addr            1    4[COMMON] unsigned char 
  7801 ;;  data            1    5[COMMON] unsigned char 
  7802 ;; Return value:  Size  Location     Type
  7803 ;;                  1    wreg      unsigned char 
  7804 ;; Registers used:
  7805 ;;		wreg, status,2, status,0, pclath, cstack
  7806 ;; Tracked objects:
  7807 ;;		On entry : 0/0
  7808 ;;		On exit  : 0/0
  7809 ;;		Unchanged: 0/0
  7810 ;; Data sizes:     COMMON   BANK0   BANK1   BANK3   BANK2
  7811 ;;      Params:         0       0       0       0       0
  7812 ;;      Locals:         2       0       0       0       0
  7813 ;;      Temps:          0       0       0       0       0
  7814 ;;      Totals:         2       0       0       0       0
  7815 ;;Total ram usage:        2 bytes
  7816 ;; Hardware stack levels used: 1
  7817 ;; Hardware stack levels required when called: 4
  7818 ;; This function calls:
  7819 ;;		_i2c_read
  7820 ;;		_i2c_rep_start
  7821 ;;		_i2c_start
  7822 ;;		_i2c_stop
  7823 ;;		_i2c_write
  7824 ;; This function is called by:
  7825 ;;		_init_ds1307
  7826 ;;		_get_time
  7827 ;; This function uses a non-reentrant model
  7828 ;;
  7829                           
  7830     16B9                     _read_ds1307:	
  7831                           ;psect for function _read_ds1307
  7832                           
  7833                           
  7834                           ;incstack = 0
  7835                           ; Regs used in _read_ds1307: [wreg+status,2+status,0+pclath+cstack]
  7836                           ;read_ds1307@addr stored from wreg
  7837     16B9  00F4               	movwf	read_ds1307@addr
  7838     16BA                     l3895:
  7839                           
  7840                           ;ds1307.c: 14: unsigned char read_ds1307(unsigned char addr);ds1307.c: 15: {;ds1307.c: 1
      +                          6:     unsigned char data;;ds1307.c: 18:     i2c_start();
  7841     16BA  160A  118A  24D1  160A  118A  	fcall	_i2c_start
  7842                           
  7843                           ;ds1307.c: 19:     i2c_write(0b11010000);
  7844     16BF  30D0               	movlw	208
  7845     16C0  160A  118A  24ED  160A  118A  	fcall	_i2c_write
  7846                           
  7847                           ;ds1307.c: 20:     i2c_write(addr);
  7848     16C5  0874               	movf	read_ds1307@addr,w
  7849     16C6  160A  118A  24ED  160A  118A  	fcall	_i2c_write
  7850                           
  7851                           ;ds1307.c: 21:     i2c_rep_start();
  7852     16CB  160A  118A  24F8  160A  118A  	fcall	_i2c_rep_start
  7853                           
  7854                           ;ds1307.c: 22:     i2c_write(0b11010001);
  7855     16D0  30D1               	movlw	209
  7856     16D1  160A  118A  24ED  160A  118A  	fcall	_i2c_write
  7857                           
  7858                           ;ds1307.c: 23:     data = i2c_read(0);
  7859     16D6  3000               	movlw	0
  7860     16D7  160A  118A  25D7  160A  118A  	fcall	_i2c_read
  7861     16DC  00F5               	movwf	read_ds1307@data
  7862                           
  7863                           ;ds1307.c: 24:     i2c_stop();
  7864     16DD  160A  118A  24DA  160A  118A  	fcall	_i2c_stop
  7865     16E2                     l3897:
  7866                           
  7867                           ;ds1307.c: 26:     return data;
  7868     16E2  0875               	movf	read_ds1307@data,w
  7869     16E3                     l73:
  7870     16E3  0008               	return
  7871     16E4                     __end_of_read_ds1307:
  7872                           
  7873                           	psect	text32
  7874     14F8                     __ptext32:	
  7875 ;; *************** function _i2c_rep_start *****************
  7876 ;; Defined at:
  7877 ;;		line 28 in file "i2c.c"
  7878 ;; Parameters:    Size  Location     Type
  7879 ;;		None
  7880 ;; Auto vars:     Size  Location     Type
  7881 ;;		None
  7882 ;; Return value:  Size  Location     Type
  7883 ;;                  1    wreg      void 
  7884 ;; Registers used:
  7885 ;;		wreg, status,2, status,0, pclath, cstack
  7886 ;; Tracked objects:
  7887 ;;		On entry : 0/0
  7888 ;;		On exit  : 0/0
  7889 ;;		Unchanged: 0/0
  7890 ;; Data sizes:     COMMON   BANK0   BANK1   BANK3   BANK2
  7891 ;;      Params:         0       0       0       0       0
  7892 ;;      Locals:         0       0       0       0       0
  7893 ;;      Temps:          0       0       0       0       0
  7894 ;;      Totals:         0       0       0       0       0
  7895 ;;Total ram usage:        0 bytes
  7896 ;; Hardware stack levels used: 1
  7897 ;; Hardware stack levels required when called: 3
  7898 ;; This function calls:
  7899 ;;		_i2c_start
  7900 ;;		_i2c_stop
  7901 ;; This function is called by:
  7902 ;;		_read_ds1307
  7903 ;;		_eeprom_at24c04_random_read
  7904 ;; This function uses a non-reentrant model
  7905 ;;
  7906                           
  7907     14F8                     _i2c_rep_start:	
  7908                           ;psect for function _i2c_rep_start
  7909                           
  7910     14F8                     l3853:	
  7911                           ;incstack = 0
  7912                           ; Regs used in _i2c_rep_start: [wreg+status,2+status,0+pclath+cstack]
  7913                           
  7914                           
  7915                           ;i2c.c: 30:     i2c_stop();
  7916     14F8  160A  118A  24DA  160A  118A  	fcall	_i2c_stop
  7917                           
  7918                           ;i2c.c: 31:     i2c_start();
  7919     14FD  160A  118A  24D1  160A  118A  	fcall	_i2c_start
  7920     1502                     l117:
  7921     1502  0008               	return
  7922     1503                     __end_of_i2c_rep_start:
  7923                           
  7924                           	psect	text33
  7925     15D7                     __ptext33:	
  7926 ;; *************** function _i2c_read *****************
  7927 ;; Defined at:
  7928 ;;		line 41 in file "i2c.c"
  7929 ;; Parameters:    Size  Location     Type
  7930 ;;  ack             1    wreg     unsigned char 
  7931 ;; Auto vars:     Size  Location     Type
  7932 ;;  ack             1    2[COMMON] unsigned char 
  7933 ;;  data            1    3[COMMON] unsigned char 
  7934 ;; Return value:  Size  Location     Type
  7935 ;;                  1    wreg      unsigned char 
  7936 ;; Registers used:
  7937 ;;		wreg, status,2, status,0, pclath, cstack
  7938 ;; Tracked objects:
  7939 ;;		On entry : 0/0
  7940 ;;		On exit  : 0/0
  7941 ;;		Unchanged: 0/0
  7942 ;; Data sizes:     COMMON   BANK0   BANK1   BANK3   BANK2
  7943 ;;      Params:         0       0       0       0       0
  7944 ;;      Locals:         2       0       0       0       0
  7945 ;;      Temps:          0       0       0       0       0
  7946 ;;      Totals:         2       0       0       0       0
  7947 ;;Total ram usage:        2 bytes
  7948 ;; Hardware stack levels used: 1
  7949 ;; Hardware stack levels required when called: 2
  7950 ;; This function calls:
  7951 ;;		_i2c_wait_for_idle
  7952 ;; This function is called by:
  7953 ;;		_read_ds1307
  7954 ;;		_eeprom_at24c04_random_read
  7955 ;; This function uses a non-reentrant model
  7956 ;;
  7957                           
  7958     15D7                     _i2c_read:	
  7959                           ;psect for function _i2c_read
  7960                           
  7961                           
  7962                           ;incstack = 0
  7963                           ; Regs used in _i2c_read: [wreg+status,2+status,0+pclath+cstack]
  7964                           ;i2c_read@ack stored from wreg
  7965     15D7  00F2               	movwf	i2c_read@ack
  7966     15D8                     l3855:
  7967                           
  7968                           ;i2c.c: 41: unsigned char i2c_read(unsigned char ack);i2c.c: 42: {;i2c.c: 43:     unsign
      +                          ed char data;;i2c.c: 45:     i2c_wait_for_idle();
  7969     15D8  160A  118A  2519  160A  118A  	fcall	_i2c_wait_for_idle
  7970     15DD                     l3857:
  7971                           
  7972                           ;i2c.c: 46:     RCEN = 1;
  7973     15DD  1683               	bsf	3,5	;RP0=1, select bank1
  7974     15DE  1303               	bcf	3,6	;RP1=0, select bank1
  7975     15DF  1591               	bsf	17,3	;volatile
  7976                           
  7977                           ;i2c.c: 48:     i2c_wait_for_idle();
  7978     15E0  160A  118A  2519  160A  118A  	fcall	_i2c_wait_for_idle
  7979     15E5                     l3859:
  7980                           
  7981                           ;i2c.c: 49:     data = SSPBUF;
  7982     15E5  1283               	bcf	3,5	;RP0=0, select bank0
  7983     15E6  1303               	bcf	3,6	;RP1=0, select bank0
  7984     15E7  0813               	movf	19,w	;volatile
  7985     15E8  00F3               	movwf	i2c_read@data
  7986     15E9                     l3861:
  7987                           
  7988                           ;i2c.c: 51:     if (ack == 1)
  7989     15E9  0372               	decf	i2c_read@ack,w
  7990     15EA  1D03               	btfss	3,2
  7991     15EB  2DED               	goto	u3441
  7992     15EC  2DEE               	goto	u3440
  7993     15ED                     u3441:
  7994     15ED  2DF2               	goto	l123
  7995     15EE                     u3440:
  7996     15EE                     l3863:
  7997                           
  7998                           ;i2c.c: 52:     {;i2c.c: 53:         ACKDT = 1;
  7999     15EE  1683               	bsf	3,5	;RP0=1, select bank1
  8000     15EF  1303               	bcf	3,6	;RP1=0, select bank1
  8001     15F0  1691               	bsf	17,5	;volatile
  8002                           
  8003                           ;i2c.c: 54:     }
  8004     15F1  2DF5               	goto	l124
  8005     15F2                     l123:	
  8006                           ;i2c.c: 55:     else
  8007                           
  8008                           
  8009                           ;i2c.c: 56:     {;i2c.c: 57:         ACKDT = 0;
  8010     15F2  1683               	bsf	3,5	;RP0=1, select bank1
  8011     15F3  1303               	bcf	3,6	;RP1=0, select bank1
  8012     15F4  1291               	bcf	17,5	;volatile
  8013     15F5                     l124:	
  8014                           ;i2c.c: 58:     }
  8015                           
  8016                           
  8017                           ;i2c.c: 60:     ACKEN = 1;
  8018     15F5  1611               	bsf	17,4	;volatile
  8019     15F6                     l3865:
  8020                           
  8021                           ;i2c.c: 62:     return data;
  8022     15F6  0873               	movf	i2c_read@data,w
  8023     15F7                     l125:
  8024     15F7  0008               	return
  8025     15F8                     __end_of_i2c_read:
  8026                           
  8027                           	psect	text34
  8028     0992                     __ptext34:	
  8029 ;; *************** function _display_time *****************
  8030 ;; Defined at:
  8031 ;;		line 20 in file "c_b_b.c"
  8032 ;; Parameters:    Size  Location     Type
  8033 ;;		None
  8034 ;; Auto vars:     Size  Location     Type
  8035 ;;		None
  8036 ;; Return value:  Size  Location     Type
  8037 ;;                  1    wreg      void 
  8038 ;; Registers used:
  8039 ;;		wreg, status,2, status,0, pclath, cstack
  8040 ;; Tracked objects:
  8041 ;;		On entry : 0/0
  8042 ;;		On exit  : 0/0
  8043 ;;		Unchanged: 0/0
  8044 ;; Data sizes:     COMMON   BANK0   BANK1   BANK3   BANK2
  8045 ;;      Params:         0       0       0       0       0
  8046 ;;      Locals:         0       0       0       0       0
  8047 ;;      Temps:          0       0       0       0       0
  8048 ;;      Totals:         0       0       0       0       0
  8049 ;;Total ram usage:        0 bytes
  8050 ;; Hardware stack levels used: 1
  8051 ;; Hardware stack levels required when called: 3
  8052 ;; This function calls:
  8053 ;;		_clcd_putch
  8054 ;; This function is called by:
  8055 ;;		_display_dash_board
  8056 ;;		_set_time
  8057 ;; This function uses a non-reentrant model
  8058 ;;
  8059                           
  8060     0992                     _display_time:	
  8061                           ;psect for function _display_time
  8062                           
  8063     0992                     l4019:	
  8064                           ;incstack = 0
  8065                           ; Regs used in _display_time: [wreg+status,2+status,0+pclath+cstack]
  8066                           
  8067                           
  8068                           ;c_b_b.c: 29:     clcd_putch(time[0], (0xC0 + 0));
  8069     0992  30C0               	movlw	192
  8070     0993  00F9               	movwf	clcd_putch@addr
  8071     0994  1283               	bcf	3,5	;RP0=0, select bank0
  8072     0995  1303               	bcf	3,6	;RP1=0, select bank0
  8073     0996  0843               	movf	_time,w
  8074     0997  160A  118A  256F  120A  158A  	fcall	_clcd_putch
  8075                           
  8076                           ;c_b_b.c: 30:     clcd_putch(time[1], (0xC0 + 1));
  8077     099C  30C1               	movlw	193
  8078     099D  00F9               	movwf	clcd_putch@addr
  8079     099E  1283               	bcf	3,5	;RP0=0, select bank0
  8080     099F  1303               	bcf	3,6	;RP1=0, select bank0
  8081     09A0  0844               	movf	_time+1,w
  8082     09A1  160A  118A  256F  120A  158A  	fcall	_clcd_putch
  8083                           
  8084                           ;c_b_b.c: 31:     clcd_putch(':', (0xC0 + 2));
  8085     09A6  30C2               	movlw	194
  8086     09A7  00F9               	movwf	clcd_putch@addr
  8087     09A8  303A               	movlw	58
  8088     09A9  160A  118A  256F  120A  158A  	fcall	_clcd_putch
  8089                           
  8090                           ;c_b_b.c: 32:     clcd_putch(time[2], (0xC0 + 3));
  8091     09AE  30C3               	movlw	195
  8092     09AF  00F9               	movwf	clcd_putch@addr
  8093     09B0  1283               	bcf	3,5	;RP0=0, select bank0
  8094     09B1  1303               	bcf	3,6	;RP1=0, select bank0
  8095     09B2  0845               	movf	_time+2,w
  8096     09B3  160A  118A  256F  120A  158A  	fcall	_clcd_putch
  8097                           
  8098                           ;c_b_b.c: 33:     clcd_putch(time[3], (0xC0 + 4));
  8099     09B8  30C4               	movlw	196
  8100     09B9  00F9               	movwf	clcd_putch@addr
  8101     09BA  1283               	bcf	3,5	;RP0=0, select bank0
  8102     09BB  1303               	bcf	3,6	;RP1=0, select bank0
  8103     09BC  0846               	movf	_time+3,w
  8104     09BD  160A  118A  256F  120A  158A  	fcall	_clcd_putch
  8105                           
  8106                           ;c_b_b.c: 34:     clcd_putch(':', (0xC0 + 5));
  8107     09C2  30C5               	movlw	197
  8108     09C3  00F9               	movwf	clcd_putch@addr
  8109     09C4  303A               	movlw	58
  8110     09C5  160A  118A  256F  120A  158A  	fcall	_clcd_putch
  8111                           
  8112                           ;c_b_b.c: 35:     clcd_putch(time[4], (0xC0 + 6));
  8113     09CA  30C6               	movlw	198
  8114     09CB  00F9               	movwf	clcd_putch@addr
  8115     09CC  1283               	bcf	3,5	;RP0=0, select bank0
  8116     09CD  1303               	bcf	3,6	;RP1=0, select bank0
  8117     09CE  0847               	movf	_time+4,w
  8118     09CF  160A  118A  256F  120A  158A  	fcall	_clcd_putch
  8119                           
  8120                           ;c_b_b.c: 36:     clcd_putch(time[5], (0xC0 + 7));
  8121     09D4  30C7               	movlw	199
  8122     09D5  00F9               	movwf	clcd_putch@addr
  8123     09D6  1283               	bcf	3,5	;RP0=0, select bank0
  8124     09D7  1303               	bcf	3,6	;RP1=0, select bank0
  8125     09D8  0848               	movf	_time+5,w
  8126     09D9  160A  118A  256F  120A  158A  	fcall	_clcd_putch
  8127     09DE                     l312:
  8128     09DE  0008               	return
  8129     09DF                     __end_of_display_time:
  8130                           
  8131                           	psect	text35
  8132     0A83                     __ptext35:	
  8133 ;; *************** function ___awmod *****************
  8134 ;; Defined at:
  8135 ;;		line 5 in file "/Applications/microchip/xc8/v2.41/pic/sources/c90/common/awmod.c"
  8136 ;; Parameters:    Size  Location     Type
  8137 ;;  divisor         2    2[COMMON] int 
  8138 ;;  dividend        2    4[COMMON] int 
  8139 ;; Auto vars:     Size  Location     Type
  8140 ;;  sign            1    8[COMMON] unsigned char 
  8141 ;;  counter         1    7[COMMON] unsigned char 
  8142 ;; Return value:  Size  Location     Type
  8143 ;;                  2    2[COMMON] int 
  8144 ;; Registers used:
  8145 ;;		wreg, status,2, status,0
  8146 ;; Tracked objects:
  8147 ;;		On entry : 0/0
  8148 ;;		On exit  : 0/0
  8149 ;;		Unchanged: 0/0
  8150 ;; Data sizes:     COMMON   BANK0   BANK1   BANK3   BANK2
  8151 ;;      Params:         4       0       0       0       0
  8152 ;;      Locals:         2       0       0       0       0
  8153 ;;      Temps:          1       0       0       0       0
  8154 ;;      Totals:         7       0       0       0       0
  8155 ;;Total ram usage:        7 bytes
  8156 ;; Hardware stack levels used: 1
  8157 ;; Hardware stack levels required when called: 1
  8158 ;; This function calls:
  8159 ;;		Nothing
  8160 ;; This function is called by:
  8161 ;;		_display_dash_board
  8162 ;;		_log_car_event
  8163 ;;		_login
  8164 ;; This function uses a non-reentrant model
  8165 ;;
  8166                           
  8167     0A83                     ___awmod:	
  8168                           ;psect for function ___awmod
  8169                           
  8170     0A83                     l4191:	
  8171                           ;incstack = 0
  8172                           ; Regs used in ___awmod: [wreg+status,2+status,0]
  8173                           
  8174     0A83  01F8               	clrf	___awmod@sign
  8175     0A84                     l4193:
  8176     0A84  1FF5               	btfss	___awmod@dividend+1,7
  8177     0A85  2A87               	goto	u3861
  8178     0A86  2A88               	goto	u3860
  8179     0A87                     u3861:
  8180     0A87  2A8F               	goto	l4199
  8181     0A88                     u3860:
  8182     0A88                     l4195:
  8183     0A88  09F4               	comf	___awmod@dividend,f
  8184     0A89  09F5               	comf	___awmod@dividend+1,f
  8185     0A8A  0AF4               	incf	___awmod@dividend,f
  8186     0A8B  1903               	skipnz
  8187     0A8C  0AF5               	incf	___awmod@dividend+1,f
  8188     0A8D                     l4197:
  8189     0A8D  01F8               	clrf	___awmod@sign
  8190     0A8E  0AF8               	incf	___awmod@sign,f
  8191     0A8F                     l4199:
  8192     0A8F  1FF3               	btfss	___awmod@divisor+1,7
  8193     0A90  2A92               	goto	u3871
  8194     0A91  2A93               	goto	u3870
  8195     0A92                     u3871:
  8196     0A92  2A98               	goto	l4203
  8197     0A93                     u3870:
  8198     0A93                     l4201:
  8199     0A93  09F2               	comf	___awmod@divisor,f
  8200     0A94  09F3               	comf	___awmod@divisor+1,f
  8201     0A95  0AF2               	incf	___awmod@divisor,f
  8202     0A96  1903               	skipnz
  8203     0A97  0AF3               	incf	___awmod@divisor+1,f
  8204     0A98                     l4203:
  8205     0A98  0872               	movf	___awmod@divisor,w
  8206     0A99  0473               	iorwf	___awmod@divisor+1,w
  8207     0A9A  1903               	btfsc	3,2
  8208     0A9B  2A9D               	goto	u3881
  8209     0A9C  2A9E               	goto	u3880
  8210     0A9D                     u3881:
  8211     0A9D  2ACD               	goto	l4221
  8212     0A9E                     u3880:
  8213     0A9E                     l4205:
  8214     0A9E  01F7               	clrf	___awmod@counter
  8215     0A9F  0AF7               	incf	___awmod@counter,f
  8216     0AA0  2AAC               	goto	l4211
  8217     0AA1                     l4207:
  8218     0AA1  3001               	movlw	1
  8219     0AA2                     u3895:
  8220     0AA2  1003               	clrc
  8221     0AA3  0DF2               	rlf	___awmod@divisor,f
  8222     0AA4  0DF3               	rlf	___awmod@divisor+1,f
  8223     0AA5  3EFF               	addlw	-1
  8224     0AA6  1D03               	skipz
  8225     0AA7  2AA2               	goto	u3895
  8226     0AA8                     l4209:
  8227     0AA8  3001               	movlw	1
  8228     0AA9  00F6               	movwf	??___awmod
  8229     0AAA  0876               	movf	??___awmod,w
  8230     0AAB  07F7               	addwf	___awmod@counter,f
  8231     0AAC                     l4211:
  8232     0AAC  1FF3               	btfss	___awmod@divisor+1,7
  8233     0AAD  2AAF               	goto	u3901
  8234     0AAE  2AB0               	goto	u3900
  8235     0AAF                     u3901:
  8236     0AAF  2AA1               	goto	l4207
  8237     0AB0                     u3900:
  8238     0AB0                     l4213:
  8239     0AB0  0873               	movf	___awmod@divisor+1,w
  8240     0AB1  0275               	subwf	___awmod@dividend+1,w
  8241     0AB2  1D03               	skipz
  8242     0AB3  2AB6               	goto	u3915
  8243     0AB4  0872               	movf	___awmod@divisor,w
  8244     0AB5  0274               	subwf	___awmod@dividend,w
  8245     0AB6                     u3915:
  8246     0AB6  1C03               	skipc
  8247     0AB7  2AB9               	goto	u3911
  8248     0AB8  2ABA               	goto	u3910
  8249     0AB9                     u3911:
  8250     0AB9  2AC0               	goto	l4217
  8251     0ABA                     u3910:
  8252     0ABA                     l4215:
  8253     0ABA  0872               	movf	___awmod@divisor,w
  8254     0ABB  02F4               	subwf	___awmod@dividend,f
  8255     0ABC  0873               	movf	___awmod@divisor+1,w
  8256     0ABD  1C03               	skipc
  8257     0ABE  03F5               	decf	___awmod@dividend+1,f
  8258     0ABF  02F5               	subwf	___awmod@dividend+1,f
  8259     0AC0                     l4217:
  8260     0AC0  3001               	movlw	1
  8261     0AC1                     u3925:
  8262     0AC1  1003               	clrc
  8263     0AC2  0CF3               	rrf	___awmod@divisor+1,f
  8264     0AC3  0CF2               	rrf	___awmod@divisor,f
  8265     0AC4  3EFF               	addlw	-1
  8266     0AC5  1D03               	skipz
  8267     0AC6  2AC1               	goto	u3925
  8268     0AC7                     l4219:
  8269     0AC7  3001               	movlw	1
  8270     0AC8  02F7               	subwf	___awmod@counter,f
  8271     0AC9  1D03               	btfss	3,2
  8272     0ACA  2ACC               	goto	u3931
  8273     0ACB  2ACD               	goto	u3930
  8274     0ACC                     u3931:
  8275     0ACC  2AB0               	goto	l4213
  8276     0ACD                     u3930:
  8277     0ACD                     l4221:
  8278     0ACD  0878               	movf	___awmod@sign,w
  8279     0ACE  1903               	btfsc	3,2
  8280     0ACF  2AD1               	goto	u3941
  8281     0AD0  2AD2               	goto	u3940
  8282     0AD1                     u3941:
  8283     0AD1  2AD7               	goto	l4225
  8284     0AD2                     u3940:
  8285     0AD2                     l4223:
  8286     0AD2  09F4               	comf	___awmod@dividend,f
  8287     0AD3  09F5               	comf	___awmod@dividend+1,f
  8288     0AD4  0AF4               	incf	___awmod@dividend,f
  8289     0AD5  1903               	skipnz
  8290     0AD6  0AF5               	incf	___awmod@dividend+1,f
  8291     0AD7                     l4225:
  8292     0AD7  0875               	movf	___awmod@dividend+1,w
  8293     0AD8  00F3               	movwf	?___awmod+1
  8294     0AD9  0874               	movf	___awmod@dividend,w
  8295     0ADA  00F2               	movwf	?___awmod
  8296     0ADB                     l822:
  8297     0ADB  0008               	return
  8298     0ADC                     __end_of___awmod:
  8299                           
  8300                           	psect	text36
  8301     0B9F                     __ptext36:	
  8302 ;; *************** function ___awdiv *****************
  8303 ;; Defined at:
  8304 ;;		line 5 in file "/Applications/microchip/xc8/v2.41/pic/sources/c90/common/awdiv.c"
  8305 ;; Parameters:    Size  Location     Type
  8306 ;;  divisor         2    2[COMMON] int 
  8307 ;;  dividend        2    4[COMMON] int 
  8308 ;; Auto vars:     Size  Location     Type
  8309 ;;  quotient        2    2[BANK0 ] int 
  8310 ;;  sign            1    1[BANK0 ] unsigned char 
  8311 ;;  counter         1    0[BANK0 ] unsigned char 
  8312 ;; Return value:  Size  Location     Type
  8313 ;;                  2    2[COMMON] int 
  8314 ;; Registers used:
  8315 ;;		wreg, status,2, status,0
  8316 ;; Tracked objects:
  8317 ;;		On entry : 0/0
  8318 ;;		On exit  : 0/0
  8319 ;;		Unchanged: 0/0
  8320 ;; Data sizes:     COMMON   BANK0   BANK1   BANK3   BANK2
  8321 ;;      Params:         4       0       0       0       0
  8322 ;;      Locals:         0       4       0       0       0
  8323 ;;      Temps:          1       0       0       0       0
  8324 ;;      Totals:         5       4       0       0       0
  8325 ;;Total ram usage:        9 bytes
  8326 ;; Hardware stack levels used: 1
  8327 ;; Hardware stack levels required when called: 1
  8328 ;; This function calls:
  8329 ;;		Nothing
  8330 ;; This function is called by:
  8331 ;;		_display_dash_board
  8332 ;;		_log_car_event
  8333 ;;		_login
  8334 ;; This function uses a non-reentrant model
  8335 ;;
  8336                           
  8337     0B9F                     ___awdiv:	
  8338                           ;psect for function ___awdiv
  8339                           
  8340     0B9F                     l4147:	
  8341                           ;incstack = 0
  8342                           ; Regs used in ___awdiv: [wreg+status,2+status,0]
  8343                           
  8344     0B9F  1283               	bcf	3,5	;RP0=0, select bank0
  8345     0BA0  1303               	bcf	3,6	;RP1=0, select bank0
  8346     0BA1  01A1               	clrf	___awdiv@sign
  8347     0BA2                     l4149:
  8348     0BA2  1FF3               	btfss	___awdiv@divisor+1,7
  8349     0BA3  2BA5               	goto	u3761
  8350     0BA4  2BA6               	goto	u3760
  8351     0BA5                     u3761:
  8352     0BA5  2BAD               	goto	l4155
  8353     0BA6                     u3760:
  8354     0BA6                     l4151:
  8355     0BA6  09F2               	comf	___awdiv@divisor,f
  8356     0BA7  09F3               	comf	___awdiv@divisor+1,f
  8357     0BA8  0AF2               	incf	___awdiv@divisor,f
  8358     0BA9  1903               	skipnz
  8359     0BAA  0AF3               	incf	___awdiv@divisor+1,f
  8360     0BAB                     l4153:
  8361     0BAB  01A1               	clrf	___awdiv@sign
  8362     0BAC  0AA1               	incf	___awdiv@sign,f
  8363     0BAD                     l4155:
  8364     0BAD  1FF5               	btfss	___awdiv@dividend+1,7
  8365     0BAE  2BB0               	goto	u3771
  8366     0BAF  2BB1               	goto	u3770
  8367     0BB0                     u3771:
  8368     0BB0  2BBA               	goto	l4161
  8369     0BB1                     u3770:
  8370     0BB1                     l4157:
  8371     0BB1  09F4               	comf	___awdiv@dividend,f
  8372     0BB2  09F5               	comf	___awdiv@dividend+1,f
  8373     0BB3  0AF4               	incf	___awdiv@dividend,f
  8374     0BB4  1903               	skipnz
  8375     0BB5  0AF5               	incf	___awdiv@dividend+1,f
  8376     0BB6                     l4159:
  8377     0BB6  3001               	movlw	1
  8378     0BB7  00F6               	movwf	??___awdiv
  8379     0BB8  0876               	movf	??___awdiv,w
  8380     0BB9  06A1               	xorwf	___awdiv@sign,f
  8381     0BBA                     l4161:
  8382     0BBA  01A2               	clrf	___awdiv@quotient
  8383     0BBB  01A3               	clrf	___awdiv@quotient+1
  8384     0BBC                     l4163:
  8385     0BBC  0872               	movf	___awdiv@divisor,w
  8386     0BBD  0473               	iorwf	___awdiv@divisor+1,w
  8387     0BBE  1903               	btfsc	3,2
  8388     0BBF  2BC1               	goto	u3781
  8389     0BC0  2BC2               	goto	u3780
  8390     0BC1                     u3781:
  8391     0BC1  2BF9               	goto	l4183
  8392     0BC2                     u3780:
  8393     0BC2                     l4165:
  8394     0BC2  01A0               	clrf	___awdiv@counter
  8395     0BC3  0AA0               	incf	___awdiv@counter,f
  8396     0BC4  2BD0               	goto	l4171
  8397     0BC5                     l4167:
  8398     0BC5  3001               	movlw	1
  8399     0BC6                     u3795:
  8400     0BC6  1003               	clrc
  8401     0BC7  0DF2               	rlf	___awdiv@divisor,f
  8402     0BC8  0DF3               	rlf	___awdiv@divisor+1,f
  8403     0BC9  3EFF               	addlw	-1
  8404     0BCA  1D03               	skipz
  8405     0BCB  2BC6               	goto	u3795
  8406     0BCC                     l4169:
  8407     0BCC  3001               	movlw	1
  8408     0BCD  00F6               	movwf	??___awdiv
  8409     0BCE  0876               	movf	??___awdiv,w
  8410     0BCF  07A0               	addwf	___awdiv@counter,f
  8411     0BD0                     l4171:
  8412     0BD0  1FF3               	btfss	___awdiv@divisor+1,7
  8413     0BD1  2BD3               	goto	u3801
  8414     0BD2  2BD4               	goto	u3800
  8415     0BD3                     u3801:
  8416     0BD3  2BC5               	goto	l4167
  8417     0BD4                     u3800:
  8418     0BD4                     l4173:
  8419     0BD4  3001               	movlw	1
  8420     0BD5                     u3815:
  8421     0BD5  1003               	clrc
  8422     0BD6  0DA2               	rlf	___awdiv@quotient,f
  8423     0BD7  0DA3               	rlf	___awdiv@quotient+1,f
  8424     0BD8  3EFF               	addlw	-1
  8425     0BD9  1D03               	skipz
  8426     0BDA  2BD5               	goto	u3815
  8427     0BDB  0873               	movf	___awdiv@divisor+1,w
  8428     0BDC  0275               	subwf	___awdiv@dividend+1,w
  8429     0BDD  1D03               	skipz
  8430     0BDE  2BE1               	goto	u3825
  8431     0BDF  0872               	movf	___awdiv@divisor,w
  8432     0BE0  0274               	subwf	___awdiv@dividend,w
  8433     0BE1                     u3825:
  8434     0BE1  1C03               	skipc
  8435     0BE2  2BE4               	goto	u3821
  8436     0BE3  2BE5               	goto	u3820
  8437     0BE4                     u3821:
  8438     0BE4  2BEC               	goto	l4179
  8439     0BE5                     u3820:
  8440     0BE5                     l4175:
  8441     0BE5  0872               	movf	___awdiv@divisor,w
  8442     0BE6  02F4               	subwf	___awdiv@dividend,f
  8443     0BE7  0873               	movf	___awdiv@divisor+1,w
  8444     0BE8  1C03               	skipc
  8445     0BE9  03F5               	decf	___awdiv@dividend+1,f
  8446     0BEA  02F5               	subwf	___awdiv@dividend+1,f
  8447     0BEB                     l4177:
  8448     0BEB  1422               	bsf	___awdiv@quotient,0
  8449     0BEC                     l4179:
  8450     0BEC  3001               	movlw	1
  8451     0BED                     u3835:
  8452     0BED  1003               	clrc
  8453     0BEE  0CF3               	rrf	___awdiv@divisor+1,f
  8454     0BEF  0CF2               	rrf	___awdiv@divisor,f
  8455     0BF0  3EFF               	addlw	-1
  8456     0BF1  1D03               	skipz
  8457     0BF2  2BED               	goto	u3835
  8458     0BF3                     l4181:
  8459     0BF3  3001               	movlw	1
  8460     0BF4  02A0               	subwf	___awdiv@counter,f
  8461     0BF5  1D03               	btfss	3,2
  8462     0BF6  2BF8               	goto	u3841
  8463     0BF7  2BF9               	goto	u3840
  8464     0BF8                     u3841:
  8465     0BF8  2BD4               	goto	l4173
  8466     0BF9                     u3840:
  8467     0BF9                     l4183:
  8468     0BF9  0821               	movf	___awdiv@sign,w
  8469     0BFA  1903               	btfsc	3,2
  8470     0BFB  2BFD               	goto	u3851
  8471     0BFC  2BFE               	goto	u3850
  8472     0BFD                     u3851:
  8473     0BFD  2C03               	goto	l4187
  8474     0BFE                     u3850:
  8475     0BFE                     l4185:
  8476     0BFE  09A2               	comf	___awdiv@quotient,f
  8477     0BFF  09A3               	comf	___awdiv@quotient+1,f
  8478     0C00  0AA2               	incf	___awdiv@quotient,f
  8479     0C01  1903               	skipnz
  8480     0C02  0AA3               	incf	___awdiv@quotient+1,f
  8481     0C03                     l4187:
  8482     0C03  0823               	movf	___awdiv@quotient+1,w
  8483     0C04  00F3               	movwf	?___awdiv+1
  8484     0C05  0822               	movf	___awdiv@quotient,w
  8485     0C06  00F2               	movwf	?___awdiv
  8486     0C07                     l809:
  8487     0C07  0008               	return
  8488     0C08                     __end_of___awdiv:
  8489                           
  8490                           	psect	text37
  8491     088E                     __ptext37:	
  8492 ;; *************** function _clear_log *****************
  8493 ;; Defined at:
  8494 ;;		line 307 in file "c_b_b.c"
  8495 ;; Parameters:    Size  Location     Type
  8496 ;;		None
  8497 ;; Auto vars:     Size  Location     Type
  8498 ;;  addr            1    2[BANK0 ] unsigned char 
  8499 ;; Return value:  Size  Location     Type
  8500 ;;                  1    wreg      void 
  8501 ;; Registers used:
  8502 ;;		wreg, fsr0l, fsr0h, status,2, status,0, btemp+1, pclath, cstack
  8503 ;; Tracked objects:
  8504 ;;		On entry : 0/0
  8505 ;;		On exit  : 0/0
  8506 ;;		Unchanged: 0/0
  8507 ;; Data sizes:     COMMON   BANK0   BANK1   BANK3   BANK2
  8508 ;;      Params:         0       0       0       0       0
  8509 ;;      Locals:         0       1       0       0       0
  8510 ;;      Temps:          0       1       0       0       0
  8511 ;;      Totals:         0       2       0       0       0
  8512 ;;Total ram usage:        2 bytes
  8513 ;; Hardware stack levels used: 1
  8514 ;; Hardware stack levels required when called: 5
  8515 ;; This function calls:
  8516 ;;		___bmul
  8517 ;;		_clcd_print
  8518 ;;		_eeprom_at24c04_str_write
  8519 ;; This function is called by:
  8520 ;;		_main
  8521 ;; This function uses a non-reentrant model
  8522 ;;
  8523                           
  8524     088E                     _clear_log:	
  8525                           ;psect for function _clear_log
  8526                           
  8527     088E                     l4499:	
  8528                           ;incstack = 0
  8529                           ; Regs used in _clear_log: [wreg-fsr0h+status,2+status,0+btemp+1+pclath+cstack]
  8530                           
  8531                           
  8532                           ;c_b_b.c: 311:     for(; c_pos < pos; c_pos++)
  8533     088E  28AB               	goto	l4507
  8534     088F                     l4501:
  8535                           
  8536                           ;c_b_b.c: 312:     {;c_b_b.c: 313:        addr = c_pos * 10 + 5;
  8537     088F  300A               	movlw	10
  8538     0890  00F2               	movwf	___bmul@multiplicand
  8539     0891  0841               	movf	_c_pos,w
  8540     0892  160A  118A  2584  120A  158A  	fcall	___bmul
  8541     0897  3E05               	addlw	5
  8542     0898  1283               	bcf	3,5	;RP0=0, select bank0
  8543     0899  1303               	bcf	3,6	;RP1=0, select bank0
  8544     089A  00A2               	movwf	clear_log@addr
  8545     089B                     l4503:
  8546                           
  8547                           ;c_b_b.c: 314:        eeprom_at24c04_str_write(addr, c_log);
  8548     089B  30C3               	movlw	(low (_c_log| 0))& (0+255)
  8549     089C  00F7               	movwf	eeprom_at24c04_str_write@data
  8550     089D  3000               	movlw	0
  8551     089E  00F8               	movwf	eeprom_at24c04_str_write@data+1
  8552     089F  0822               	movf	clear_log@addr,w
  8553     08A0  120A  158A  2025  120A  158A  	fcall	_eeprom_at24c04_str_write
  8554     08A5                     l4505:
  8555                           
  8556                           ;c_b_b.c: 315:     }
  8557     08A5  3001               	movlw	1
  8558     08A6  1283               	bcf	3,5	;RP0=0, select bank0
  8559     08A7  1303               	bcf	3,6	;RP1=0, select bank0
  8560     08A8  00A1               	movwf	??_clear_log
  8561     08A9  0821               	movf	??_clear_log,w
  8562     08AA  07C1               	addwf	_c_pos,f
  8563     08AB                     l4507:
  8564     08AB  1283               	bcf	3,5	;RP0=0, select bank0
  8565     08AC  1303               	bcf	3,6	;RP1=0, select bank0
  8566     08AD  084E               	movf	_pos,w
  8567     08AE  0241               	subwf	_c_pos,w
  8568     08AF  1C03               	skipc
  8569     08B0  28B2               	goto	u4231
  8570     08B1  28B3               	goto	u4230
  8571     08B2                     u4231:
  8572     08B2  288F               	goto	l4501
  8573     08B3                     u4230:
  8574     08B3                     l4509:
  8575                           
  8576                           ;c_b_b.c: 317:     if(c_pos == pos)
  8577     08B3  0841               	movf	_c_pos,w
  8578     08B4  064E               	xorwf	_pos,w
  8579     08B5  1D03               	skipz
  8580     08B6  28B8               	goto	u4241
  8581     08B7  28B9               	goto	u4240
  8582     08B8                     u4241:
  8583     08B8  28BB               	goto	l4513
  8584     08B9                     u4240:
  8585     08B9                     l4511:
  8586                           
  8587                           ;c_b_b.c: 318:     {;c_b_b.c: 319:         c_pos = 0;
  8588     08B9  01C1               	clrf	_c_pos
  8589                           
  8590                           ;c_b_b.c: 320:         pos = 0;
  8591     08BA  01CE               	clrf	_pos
  8592     08BB                     l4513:
  8593                           
  8594                           ;c_b_b.c: 323:     clear_flag = 1;
  8595     08BB  01C0               	clrf	_clear_flag
  8596     08BC  0AC0               	incf	_clear_flag,f
  8597     08BD                     l4515:
  8598                           
  8599                           ;c_b_b.c: 325:     clcd_print("LOG CLEARED", (0x80 + 2));
  8600     08BD  30B3               	movlw	low (STR_26| (0+32768))
  8601     08BE  00F6               	movwf	clcd_print@str
  8602     08BF  3087               	movlw	high (STR_26| (0+32768))
  8603     08C0  00F7               	movwf	clcd_print@str+1
  8604     08C1  3082               	movlw	130
  8605     08C2  00F8               	movwf	clcd_print@addr
  8606     08C3  160A  118A  273D  120A  158A  	fcall	_clcd_print
  8607     08C8                     l382:
  8608     08C8  0008               	return
  8609     08C9                     __end_of_clear_log:
  8610                           
  8611                           	psect	text38
  8612     1584                     __ptext38:	
  8613 ;; *************** function ___bmul *****************
  8614 ;; Defined at:
  8615 ;;		line 4 in file "/Applications/microchip/xc8/v2.41/pic/sources/c90/common/Umul8.c"
  8616 ;; Parameters:    Size  Location     Type
  8617 ;;  multiplier      1    wreg     unsigned char 
  8618 ;;  multiplicand    1    2[COMMON] unsigned char 
  8619 ;; Auto vars:     Size  Location     Type
  8620 ;;  multiplier      1    5[COMMON] unsigned char 
  8621 ;;  product         1    4[COMMON] unsigned char 
  8622 ;; Return value:  Size  Location     Type
  8623 ;;                  1    wreg      unsigned char 
  8624 ;; Registers used:
  8625 ;;		wreg, status,2, status,0
  8626 ;; Tracked objects:
  8627 ;;		On entry : 0/0
  8628 ;;		On exit  : 0/0
  8629 ;;		Unchanged: 0/0
  8630 ;; Data sizes:     COMMON   BANK0   BANK1   BANK3   BANK2
  8631 ;;      Params:         1       0       0       0       0
  8632 ;;      Locals:         2       0       0       0       0
  8633 ;;      Temps:          1       0       0       0       0
  8634 ;;      Totals:         4       0       0       0       0
  8635 ;;Total ram usage:        4 bytes
  8636 ;; Hardware stack levels used: 1
  8637 ;; Hardware stack levels required when called: 1
  8638 ;; This function calls:
  8639 ;;		Nothing
  8640 ;; This function is called by:
  8641 ;;		_log_event
  8642 ;;		_read_event
  8643 ;;		_clear_log
  8644 ;;		_download_log
  8645 ;; This function uses a non-reentrant model
  8646 ;;
  8647                           
  8648     1584                     ___bmul:	
  8649                           ;psect for function ___bmul
  8650                           
  8651                           
  8652                           ;incstack = 0
  8653                           ; Regs used in ___bmul: [wreg+status,2+status,0]
  8654                           ;___bmul@multiplier stored from wreg
  8655     1584  00F5               	movwf	___bmul@multiplier
  8656     1585                     l3935:
  8657     1585  01F4               	clrf	___bmul@product
  8658     1586                     l3937:
  8659     1586  1C75               	btfss	___bmul@multiplier,0
  8660     1587  2D89               	goto	u3471
  8661     1588  2D8A               	goto	u3470
  8662     1589                     u3471:
  8663     1589  2D8E               	goto	l3941
  8664     158A                     u3470:
  8665     158A                     l3939:
  8666     158A  0872               	movf	___bmul@multiplicand,w
  8667     158B  00F3               	movwf	??___bmul
  8668     158C  0873               	movf	??___bmul,w
  8669     158D  07F4               	addwf	___bmul@product,f
  8670     158E                     l3941:
  8671     158E  1003               	clrc
  8672     158F  0DF2               	rlf	___bmul@multiplicand,f
  8673     1590                     l3943:
  8674     1590  1003               	clrc
  8675     1591  0CF5               	rrf	___bmul@multiplier,f
  8676     1592  0875               	movf	___bmul@multiplier,w
  8677     1593  1D03               	btfss	3,2
  8678     1594  2D96               	goto	u3481
  8679     1595  2D97               	goto	u3480
  8680     1596                     u3481:
  8681     1596  2D86               	goto	l3937
  8682     1597                     u3480:
  8683     1597                     l3945:
  8684     1597  0874               	movf	___bmul@product,w
  8685     1598                     l682:
  8686     1598  0008               	return
  8687     1599                     __end_of___bmul:
  8688                           
  8689                           	psect	text39
  8690     0D1A                     __ptext39:	
  8691 ;; *************** function _change_password *****************
  8692 ;; Defined at:
  8693 ;;		line 589 in file "c_b_b.c"
  8694 ;; Parameters:    Size  Location     Type
  8695 ;;  key             1    wreg     unsigned char 
  8696 ;; Auto vars:     Size  Location     Type
  8697 ;;  key             1    8[BANK0 ] unsigned char 
  8698 ;;  npassword       4    9[BANK0 ] unsigned char [4]
  8699 ;;  bar             2    6[BANK0 ] unsigned char [2]
  8700 ;; Return value:  Size  Location     Type
  8701 ;;                  1    wreg      void 
  8702 ;; Registers used:
  8703 ;;		wreg, fsr0l, fsr0h, status,2, status,0, btemp+1, pclath, cstack
  8704 ;; Tracked objects:
  8705 ;;		On entry : 0/0
  8706 ;;		On exit  : 0/0
  8707 ;;		Unchanged: 0/0
  8708 ;; Data sizes:     COMMON   BANK0   BANK1   BANK3   BANK2
  8709 ;;      Params:         0       0       0       0       0
  8710 ;;      Locals:         0       7       0       0       0
  8711 ;;      Temps:          0       1       0       0       0
  8712 ;;      Totals:         0       8       0       0       0
  8713 ;;Total ram usage:        8 bytes
  8714 ;; Hardware stack levels used: 1
  8715 ;; Hardware stack levels required when called: 5
  8716 ;; This function calls:
  8717 ;;		_clcd_print
  8718 ;;		_clcd_putch
  8719 ;;		_clear_screen
  8720 ;;		_eeprom_at24c04_str_write
  8721 ;; This function is called by:
  8722 ;;		_main
  8723 ;; This function uses a non-reentrant model
  8724 ;;
  8725                           
  8726     0D1A                     _change_password:	
  8727                           ;psect for function _change_password
  8728                           
  8729                           
  8730                           ;incstack = 0
  8731                           ; Regs used in _change_password: [wreg-fsr0h+status,2+status,0+btemp+1+pclath+cstack]
  8732                           ;change_password@key stored from wreg
  8733     0D1A  1283               	bcf	3,5	;RP0=0, select bank0
  8734     0D1B  1303               	bcf	3,6	;RP1=0, select bank0
  8735     0D1C  00A8               	movwf	change_password@key
  8736     0D1D                     l4723:
  8737                           
  8738                           ;c_b_b.c: 589: void change_password(unsigned char key);c_b_b.c: 590: {;c_b_b.c: 591:    
      +                           char npassword[4], bar[2];;c_b_b.c: 592:     static char i = 0;;c_b_b.c: 593:     unsig
      +                          ned static char display = 1;;c_b_b.c: 594:     bar[0] = 207 + '0';
  8739     0D1D  30FF               	movlw	255
  8740     0D1E  00A6               	movwf	change_password@bar
  8741     0D1F                     l4725:
  8742                           
  8743                           ;c_b_b.c: 595:     bar[1] = '\0';
  8744     0D1F  01A7               	clrf	change_password@bar+1
  8745     0D20                     l4727:
  8746                           
  8747                           ;c_b_b.c: 597:     if(first_time)
  8748     0D20  0850               	movf	_first_time,w
  8749     0D21  1903               	btfsc	3,2
  8750     0D22  2D24               	goto	u4621
  8751     0D23  2D25               	goto	u4620
  8752     0D24                     u4621:
  8753     0D24  2D3B               	goto	l4745
  8754     0D25                     u4620:
  8755     0D25                     l4729:
  8756                           
  8757                           ;c_b_b.c: 598:     {;c_b_b.c: 599:         clcd_print("  NEW PASSWORD", (0x80 + 0));
  8758     0D25  3079               	movlw	low (STR_31| (0+32768))
  8759     0D26  00F6               	movwf	clcd_print@str
  8760     0D27  3087               	movlw	high (STR_31| (0+32768))
  8761     0D28  00F7               	movwf	clcd_print@str+1
  8762     0D29  3080               	movlw	128
  8763     0D2A  00F8               	movwf	clcd_print@addr
  8764     0D2B  160A  118A  273D  120A  158A  	fcall	_clcd_print
  8765     0D30                     l4731:
  8766                           
  8767                           ;c_b_b.c: 600:         npassword[0] = ' ';
  8768     0D30  3020               	movlw	32
  8769     0D31  1283               	bcf	3,5	;RP0=0, select bank0
  8770     0D32  1303               	bcf	3,6	;RP1=0, select bank0
  8771     0D33  00A9               	movwf	change_password@npassword
  8772     0D34                     l4733:
  8773                           
  8774                           ;c_b_b.c: 601:         npassword[1] = '\0';
  8775     0D34  01AA               	clrf	change_password@npassword+1
  8776     0D35                     l4735:
  8777                           
  8778                           ;c_b_b.c: 602:         npassword[2] = '\0';
  8779     0D35  01AB               	clrf	change_password@npassword+2
  8780     0D36                     l4737:
  8781                           
  8782                           ;c_b_b.c: 603:         npassword[3] = '\0';
  8783     0D36  01AC               	clrf	change_password@npassword+3
  8784     0D37                     l4739:
  8785                           
  8786                           ;c_b_b.c: 604:         first_time = 0;
  8787     0D37  01D0               	clrf	_first_time
  8788     0D38                     l4741:
  8789                           
  8790                           ;c_b_b.c: 605:         display = 1;
  8791     0D38  01CB               	clrf	change_password@display
  8792     0D39  0ACB               	incf	change_password@display,f
  8793     0D3A                     l4743:
  8794                           
  8795                           ;c_b_b.c: 606:         TMR2ON = 1;
  8796     0D3A  1512               	bsf	18,2	;volatile
  8797     0D3B                     l4745:
  8798                           
  8799                           ;c_b_b.c: 609:     if(i == 4)
  8800     0D3B  3004               	movlw	4
  8801     0D3C  063C               	xorwf	change_password@i,w
  8802     0D3D  1D03               	btfss	3,2
  8803     0D3E  2D40               	goto	u4631
  8804     0D3F  2D41               	goto	u4630
  8805     0D40                     u4631:
  8806     0D40  2D62               	goto	l4759
  8807     0D41                     u4630:
  8808     0D41                     l4747:
  8809                           
  8810                           ;c_b_b.c: 610:     {;c_b_b.c: 615:         eeprom_at24c04_str_write(0x00, npassword);
  8811     0D41  3029               	movlw	(low (change_password@npassword| 0))& (0+255)
  8812     0D42  00F7               	movwf	eeprom_at24c04_str_write@data
  8813     0D43  3000               	movlw	0
  8814     0D44  00F8               	movwf	eeprom_at24c04_str_write@data+1
  8815     0D45  3000               	movlw	0
  8816     0D46  120A  158A  2025  120A  158A  	fcall	_eeprom_at24c04_str_write
  8817     0D4B                     l4749:
  8818                           
  8819                           ;c_b_b.c: 616:         i = 0;
  8820     0D4B  1283               	bcf	3,5	;RP0=0, select bank0
  8821     0D4C  1303               	bcf	3,6	;RP1=0, select bank0
  8822     0D4D  01BC               	clrf	change_password@i
  8823     0D4E                     l4751:
  8824                           
  8825                           ;c_b_b.c: 617:         clear_screen();
  8826     0D4E  160A  118A  2526  120A  158A  	fcall	_clear_screen
  8827     0D53                     l4753:
  8828                           
  8829                           ;c_b_b.c: 618:         clcd_print("PASSWORD CHANGED", (0x80 + 0));
  8830     0D53  3015               	movlw	low (STR_32| (0+32768))
  8831     0D54  00F6               	movwf	clcd_print@str
  8832     0D55  3087               	movlw	high (STR_32| (0+32768))
  8833     0D56  00F7               	movwf	clcd_print@str+1
  8834     0D57  3080               	movlw	128
  8835     0D58  00F8               	movwf	clcd_print@addr
  8836     0D59  160A  118A  273D  120A  158A  	fcall	_clcd_print
  8837     0D5E                     l4755:
  8838                           
  8839                           ;c_b_b.c: 619:         display = 0;
  8840     0D5E  1283               	bcf	3,5	;RP0=0, select bank0
  8841     0D5F  1303               	bcf	3,6	;RP1=0, select bank0
  8842     0D60  01CB               	clrf	change_password@display
  8843     0D61                     l4757:
  8844                           
  8845                           ;c_b_b.c: 620:         TMR2ON = 0;
  8846     0D61  1112               	bcf	18,2	;volatile
  8847     0D62                     l4759:
  8848                           
  8849                           ;c_b_b.c: 623:     if(key == 0x37 && i < 4)
  8850     0D62  3037               	movlw	55
  8851     0D63  0628               	xorwf	change_password@key,w
  8852     0D64  1D03               	btfss	3,2
  8853     0D65  2D67               	goto	u4641
  8854     0D66  2D68               	goto	u4640
  8855     0D67                     u4641:
  8856     0D67  2D83               	goto	l4769
  8857     0D68                     u4640:
  8858     0D68                     l4761:
  8859     0D68  3004               	movlw	4
  8860     0D69  023C               	subwf	change_password@i,w
  8861     0D6A  1803               	skipnc
  8862     0D6B  2D6D               	goto	u4651
  8863     0D6C  2D6E               	goto	u4650
  8864     0D6D                     u4651:
  8865     0D6D  2D83               	goto	l4769
  8866     0D6E                     u4650:
  8867     0D6E                     l4763:
  8868                           
  8869                           ;c_b_b.c: 624:     {;c_b_b.c: 625:         npassword[i] = '1';
  8870     0D6E  083C               	movf	change_password@i,w
  8871     0D6F  3E29               	addlw	(low (change_password@npassword| 0))& (0+255)
  8872     0D70  0084               	movwf	4
  8873     0D71  3031               	movlw	49
  8874     0D72  1383               	bcf	3,7	;select IRP bank0
  8875     0D73  0080               	movwf	0
  8876     0D74                     l4765:
  8877                           
  8878                           ;c_b_b.c: 626:         clcd_putch('*', (0xC0 + 6 + i));
  8879     0D74  083C               	movf	change_password@i,w
  8880     0D75  3EC6               	addlw	198
  8881     0D76  00F9               	movwf	clcd_putch@addr
  8882     0D77  302A               	movlw	42
  8883     0D78  160A  118A  256F  120A  158A  	fcall	_clcd_putch
  8884     0D7D                     l4767:
  8885                           
  8886                           ;c_b_b.c: 627:         i++;
  8887     0D7D  3001               	movlw	1
  8888     0D7E  1283               	bcf	3,5	;RP0=0, select bank0
  8889     0D7F  1303               	bcf	3,6	;RP1=0, select bank0
  8890     0D80  00A5               	movwf	??_change_password
  8891     0D81  0825               	movf	??_change_password,w
  8892     0D82  07BC               	addwf	change_password@i,f
  8893     0D83                     l4769:
  8894                           
  8895                           ;c_b_b.c: 630:     if(key == 0x2F && i < 4)
  8896     0D83  302F               	movlw	47
  8897     0D84  0628               	xorwf	change_password@key,w
  8898     0D85  1D03               	btfss	3,2
  8899     0D86  2D88               	goto	u4661
  8900     0D87  2D89               	goto	u4660
  8901     0D88                     u4661:
  8902     0D88  2DA4               	goto	l4779
  8903     0D89                     u4660:
  8904     0D89                     l4771:
  8905     0D89  3004               	movlw	4
  8906     0D8A  023C               	subwf	change_password@i,w
  8907     0D8B  1803               	skipnc
  8908     0D8C  2D8E               	goto	u4671
  8909     0D8D  2D8F               	goto	u4670
  8910     0D8E                     u4671:
  8911     0D8E  2DA4               	goto	l4779
  8912     0D8F                     u4670:
  8913     0D8F                     l4773:
  8914                           
  8915                           ;c_b_b.c: 631:     {;c_b_b.c: 632:         npassword[i] = '0';
  8916     0D8F  083C               	movf	change_password@i,w
  8917     0D90  3E29               	addlw	(low (change_password@npassword| 0))& (0+255)
  8918     0D91  0084               	movwf	4
  8919     0D92  3030               	movlw	48
  8920     0D93  1383               	bcf	3,7	;select IRP bank0
  8921     0D94  0080               	movwf	0
  8922     0D95                     l4775:
  8923                           
  8924                           ;c_b_b.c: 633:         clcd_putch('*', (0xC0 + 6 + i));
  8925     0D95  083C               	movf	change_password@i,w
  8926     0D96  3EC6               	addlw	198
  8927     0D97  00F9               	movwf	clcd_putch@addr
  8928     0D98  302A               	movlw	42
  8929     0D99  160A  118A  256F  120A  158A  	fcall	_clcd_putch
  8930     0D9E                     l4777:
  8931                           
  8932                           ;c_b_b.c: 634:         i++;
  8933     0D9E  3001               	movlw	1
  8934     0D9F  1283               	bcf	3,5	;RP0=0, select bank0
  8935     0DA0  1303               	bcf	3,6	;RP1=0, select bank0
  8936     0DA1  00A5               	movwf	??_change_password
  8937     0DA2  0825               	movf	??_change_password,w
  8938     0DA3  07BC               	addwf	change_password@i,f
  8939     0DA4                     l4779:
  8940                           
  8941                           ;c_b_b.c: 637:     if(display)
  8942     0DA4  084B               	movf	change_password@display,w
  8943     0DA5  1903               	btfsc	3,2
  8944     0DA6  2DA8               	goto	u4681
  8945     0DA7  2DA9               	goto	u4680
  8946     0DA8                     u4681:
  8947     0DA8  2DC5               	goto	l453
  8948     0DA9                     u4680:
  8949     0DA9                     l4781:
  8950                           
  8951                           ;c_b_b.c: 638:     {;c_b_b.c: 639:         if(blink)
  8952     0DA9  084F               	movf	_blink,w
  8953     0DAA  1903               	btfsc	3,2
  8954     0DAB  2DAD               	goto	u4691
  8955     0DAC  2DAE               	goto	u4690
  8956     0DAD                     u4691:
  8957     0DAD  2DB8               	goto	l4785
  8958     0DAE                     u4690:
  8959     0DAE                     l4783:
  8960                           
  8961                           ;c_b_b.c: 640:         {;c_b_b.c: 641:             clcd_putch(bar[0], (0xC0 + 6 + i));
  8962     0DAE  083C               	movf	change_password@i,w
  8963     0DAF  3EC6               	addlw	198
  8964     0DB0  00F9               	movwf	clcd_putch@addr
  8965     0DB1  0826               	movf	change_password@bar,w
  8966     0DB2  160A  118A  256F  120A  158A  	fcall	_clcd_putch
  8967                           
  8968                           ;c_b_b.c: 642:         }
  8969     0DB7  2DC5               	goto	l453
  8970     0DB8                     l4785:
  8971                           
  8972                           ;c_b_b.c: 644:         {;c_b_b.c: 645:             clcd_putch(npassword[i], (0xC0 + 6 + 
      +                          i));
  8973     0DB8  083C               	movf	change_password@i,w
  8974     0DB9  3EC6               	addlw	198
  8975     0DBA  00F9               	movwf	clcd_putch@addr
  8976     0DBB  083C               	movf	change_password@i,w
  8977     0DBC  3E29               	addlw	(low (change_password@npassword| 0))& (0+255)
  8978     0DBD  0084               	movwf	4
  8979     0DBE  1383               	bcf	3,7	;select IRP bank0
  8980     0DBF  0800               	movf	0,w
  8981     0DC0  160A  118A  256F  120A  158A  	fcall	_clcd_putch
  8982     0DC5                     l453:
  8983     0DC5  0008               	return
  8984     0DC6                     __end_of_change_password:
  8985                           
  8986                           	psect	text40
  8987     0825                     __ptext40:	
  8988 ;; *************** function _eeprom_at24c04_str_write *****************
  8989 ;; Defined at:
  8990 ;;		line 28 in file "at24c04.c"
  8991 ;; Parameters:    Size  Location     Type
  8992 ;;  memory_loc      1    wreg     unsigned char 
  8993 ;;  data            2    7[COMMON] PTR unsigned char 
  8994 ;;		 -> change_password@npassword(4), c_log(11), log(11), STR_7(5), 
  8995 ;; Auto vars:     Size  Location     Type
  8996 ;;  memory_loc      1    0[BANK0 ] unsigned char 
  8997 ;; Return value:  Size  Location     Type
  8998 ;;                  1    wreg      void 
  8999 ;; Registers used:
  9000 ;;		wreg, fsr0l, fsr0h, status,2, status,0, btemp+1, pclath, cstack
  9001 ;; Tracked objects:
  9002 ;;		On entry : 0/0
  9003 ;;		On exit  : 0/0
  9004 ;;		Unchanged: 0/0
  9005 ;; Data sizes:     COMMON   BANK0   BANK1   BANK3   BANK2
  9006 ;;      Params:         2       0       0       0       0
  9007 ;;      Locals:         0       1       0       0       0
  9008 ;;      Temps:          1       0       0       0       0
  9009 ;;      Totals:         3       1       0       0       0
  9010 ;;Total ram usage:        4 bytes
  9011 ;; Hardware stack levels used: 1
  9012 ;; Hardware stack levels required when called: 4
  9013 ;; This function calls:
  9014 ;;		_eeprom_at24c04_byte_write
  9015 ;; This function is called by:
  9016 ;;		_main
  9017 ;;		_log_event
  9018 ;;		_clear_log
  9019 ;;		_change_password
  9020 ;; This function uses a non-reentrant model
  9021 ;;
  9022                           
  9023     0825                     _eeprom_at24c04_str_write:	
  9024                           ;psect for function _eeprom_at24c04_str_write
  9025                           
  9026                           
  9027                           ;incstack = 0
  9028                           ; Regs used in _eeprom_at24c04_str_write: [wreg-fsr0h+status,2+status,0+btemp+1+pclath+c
      +                          stack]
  9029                           ;eeprom_at24c04_str_write@memory_loc stored from wreg
  9030     0825  1283               	bcf	3,5	;RP0=0, select bank0
  9031     0826  1303               	bcf	3,6	;RP1=0, select bank0
  9032     0827  00A0               	movwf	eeprom_at24c04_str_write@memory_loc
  9033     0828                     l3903:
  9034                           
  9035                           ;at24c04.c: 28: void eeprom_at24c04_str_write(unsigned char memory_loc, char *data);at24
      +                          c04.c: 29: {;at24c04.c: 30:     while(*data != 0)
  9036     0828  2845               	goto	l3911
  9037     0829                     l3905:
  9038                           
  9039                           ;at24c04.c: 31:     {;at24c04.c: 32:         eeprom_at24c04_byte_write(memory_loc, *data
      +                          );
  9040     0829  0878               	movf	eeprom_at24c04_str_write@data+1,w
  9041     082A  00FF               	movwf	btemp+1
  9042     082B  0877               	movf	eeprom_at24c04_str_write@data,w
  9043     082C  0084               	movwf	4
  9044     082D  160A  118A  2000  120A  158A  	fcall	stringtab
  9045     0832  00F3               	movwf	eeprom_at24c04_byte_write@data
  9046     0833  0820               	movf	eeprom_at24c04_str_write@memory_loc,w
  9047     0834  160A  118A  2668  120A  158A  	fcall	_eeprom_at24c04_byte_write
  9048     0839                     l3907:
  9049                           
  9050                           ;at24c04.c: 33:         data++;
  9051     0839  3001               	movlw	1
  9052     083A  07F7               	addwf	eeprom_at24c04_str_write@data,f
  9053     083B  1803               	skipnc
  9054     083C  0AF8               	incf	eeprom_at24c04_str_write@data+1,f
  9055     083D  3000               	movlw	0
  9056     083E  07F8               	addwf	eeprom_at24c04_str_write@data+1,f
  9057     083F                     l3909:
  9058                           
  9059                           ;at24c04.c: 34:         memory_loc++;
  9060     083F  3001               	movlw	1
  9061     0840  00F9               	movwf	??_eeprom_at24c04_str_write
  9062     0841  0879               	movf	??_eeprom_at24c04_str_write,w
  9063     0842  1283               	bcf	3,5	;RP0=0, select bank0
  9064     0843  1303               	bcf	3,6	;RP1=0, select bank0
  9065     0844  07A0               	addwf	eeprom_at24c04_str_write@memory_loc,f
  9066     0845                     l3911:
  9067                           
  9068                           ;at24c04.c: 30:     while(*data != 0)
  9069     0845  0878               	movf	eeprom_at24c04_str_write@data+1,w
  9070     0846  00FF               	movwf	btemp+1
  9071     0847  0877               	movf	eeprom_at24c04_str_write@data,w
  9072     0848  0084               	movwf	4
  9073     0849  160A  118A  2000  120A  158A  	fcall	stringtab
  9074     084E  3A00               	xorlw	0
  9075     084F  1D03               	skipz
  9076     0850  2852               	goto	u3451
  9077     0851  2853               	goto	u3450
  9078     0852                     u3451:
  9079     0852  2829               	goto	l3905
  9080     0853                     u3450:
  9081     0853                     l500:
  9082     0853  0008               	return
  9083     0854                     __end_of_eeprom_at24c04_str_write:
  9084                           
  9085                           	psect	text41
  9086     1668                     __ptext41:	
  9087 ;; *************** function _eeprom_at24c04_byte_write *****************
  9088 ;; Defined at:
  9089 ;;		line 17 in file "at24c04.c"
  9090 ;; Parameters:    Size  Location     Type
  9091 ;;  memory_loc      1    wreg     unsigned char 
  9092 ;;  data            1    3[COMMON] unsigned char 
  9093 ;; Auto vars:     Size  Location     Type
  9094 ;;  memory_loc      1    6[COMMON] unsigned char 
  9095 ;; Return value:  Size  Location     Type
  9096 ;;                  1    wreg      void 
  9097 ;; Registers used:
  9098 ;;		wreg, status,2, status,0, pclath, cstack
  9099 ;; Tracked objects:
  9100 ;;		On entry : 0/0
  9101 ;;		On exit  : 0/0
  9102 ;;		Unchanged: 0/0
  9103 ;; Data sizes:     COMMON   BANK0   BANK1   BANK3   BANK2
  9104 ;;      Params:         1       0       0       0       0
  9105 ;;      Locals:         1       0       0       0       0
  9106 ;;      Temps:          2       0       0       0       0
  9107 ;;      Totals:         4       0       0       0       0
  9108 ;;Total ram usage:        4 bytes
  9109 ;; Hardware stack levels used: 1
  9110 ;; Hardware stack levels required when called: 3
  9111 ;; This function calls:
  9112 ;;		_i2c_start
  9113 ;;		_i2c_stop
  9114 ;;		_i2c_write
  9115 ;; This function is called by:
  9116 ;;		_eeprom_at24c04_str_write
  9117 ;; This function uses a non-reentrant model
  9118 ;;
  9119                           
  9120     1668                     _eeprom_at24c04_byte_write:	
  9121                           ;psect for function _eeprom_at24c04_byte_write
  9122                           
  9123                           
  9124                           ;incstack = 0
  9125                           ; Regs used in _eeprom_at24c04_byte_write: [wreg+status,2+status,0+pclath+cstack]
  9126                           ;eeprom_at24c04_byte_write@memory_loc stored from wreg
  9127     1668  00F6               	movwf	eeprom_at24c04_byte_write@memory_loc
  9128     1669                     l3869:
  9129                           
  9130                           ;at24c04.c: 17: void eeprom_at24c04_byte_write(unsigned char memory_loc, unsigned char d
      +                          ata);at24c04.c: 18: {;at24c04.c: 19:     i2c_start();
  9131     1669  160A  118A  24D1  160A  118A  	fcall	_i2c_start
  9132                           
  9133                           ;at24c04.c: 20:     i2c_write(0xA0);
  9134     166E  30A0               	movlw	160
  9135     166F  160A  118A  24ED  160A  118A  	fcall	_i2c_write
  9136                           
  9137                           ;at24c04.c: 21:     i2c_write(memory_loc);
  9138     1674  0876               	movf	eeprom_at24c04_byte_write@memory_loc,w
  9139     1675  160A  118A  24ED  160A  118A  	fcall	_i2c_write
  9140                           
  9141                           ;at24c04.c: 22:     i2c_write(data);
  9142     167A  0873               	movf	eeprom_at24c04_byte_write@data,w
  9143     167B  160A  118A  24ED  160A  118A  	fcall	_i2c_write
  9144                           
  9145                           ;at24c04.c: 23:     i2c_stop();
  9146     1680  160A  118A  24DA  160A  118A  	fcall	_i2c_stop
  9147     1685                     l3871:
  9148                           
  9149                           ;at24c04.c: 25:     _delay((unsigned long)((3)*(20000000/4000.0)));
  9150     1685  3014               	movlw	20
  9151     1686  00F5               	movwf	??_eeprom_at24c04_byte_write+1
  9152     1687  3079               	movlw	121
  9153     1688  00F4               	movwf	??_eeprom_at24c04_byte_write
  9154     1689                     u5367:
  9155     1689  0BF4               	decfsz	??_eeprom_at24c04_byte_write,f
  9156     168A  2E89               	goto	u5367
  9157     168B  0BF5               	decfsz	??_eeprom_at24c04_byte_write+1,f
  9158     168C  2E89               	goto	u5367
  9159     168D  2E8E               	nop2
  9160     168E                     l494:
  9161     168E  0008               	return
  9162     168F                     __end_of_eeprom_at24c04_byte_write:
  9163                           
  9164                           	psect	text42
  9165     14ED                     __ptext42:	
  9166 ;; *************** function _i2c_write *****************
  9167 ;; Defined at:
  9168 ;;		line 65 in file "i2c.c"
  9169 ;; Parameters:    Size  Location     Type
  9170 ;;  data            1    wreg     unsigned char 
  9171 ;; Auto vars:     Size  Location     Type
  9172 ;;  data            1    2[COMMON] unsigned char 
  9173 ;; Return value:  Size  Location     Type
  9174 ;;                  2   61[None  ] int 
  9175 ;; Registers used:
  9176 ;;		wreg, status,2, status,0, pclath, cstack
  9177 ;; Tracked objects:
  9178 ;;		On entry : 0/0
  9179 ;;		On exit  : 0/0
  9180 ;;		Unchanged: 0/0
  9181 ;; Data sizes:     COMMON   BANK0   BANK1   BANK3   BANK2
  9182 ;;      Params:         0       0       0       0       0
  9183 ;;      Locals:         1       0       0       0       0
  9184 ;;      Temps:          0       0       0       0       0
  9185 ;;      Totals:         1       0       0       0       0
  9186 ;;Total ram usage:        1 bytes
  9187 ;; Hardware stack levels used: 1
  9188 ;; Hardware stack levels required when called: 2
  9189 ;; This function calls:
  9190 ;;		_i2c_wait_for_idle
  9191 ;; This function is called by:
  9192 ;;		_read_ds1307
  9193 ;;		_write_ds1307
  9194 ;;		_eeprom_at24c04_random_read
  9195 ;;		_eeprom_at24c04_byte_write
  9196 ;; This function uses a non-reentrant model
  9197 ;;
  9198                           
  9199     14ED                     _i2c_write:	
  9200                           ;psect for function _i2c_write
  9201                           
  9202                           
  9203                           ;incstack = 0
  9204                           ; Regs used in _i2c_write: [wreg+status,2+status,0+pclath+cstack]
  9205                           ;i2c_write@data stored from wreg
  9206     14ED  00F2               	movwf	i2c_write@data
  9207     14EE                     l3833:
  9208                           
  9209                           ;i2c.c: 65: int i2c_write(unsigned char data);i2c.c: 66: {;i2c.c: 67:     i2c_wait_for_i
      +                          dle();
  9210     14EE  160A  118A  2519  160A  118A  	fcall	_i2c_wait_for_idle
  9211     14F3                     l3835:
  9212                           
  9213                           ;i2c.c: 68:     SSPBUF = data;
  9214     14F3  0872               	movf	i2c_write@data,w
  9215     14F4  1283               	bcf	3,5	;RP0=0, select bank0
  9216     14F5  1303               	bcf	3,6	;RP1=0, select bank0
  9217     14F6  0093               	movwf	19	;volatile
  9218     14F7                     l3837:
  9219     14F7                     l128:	
  9220                           ;i2c.c: 70:     return !ACKSTAT;;	Return value of _i2c_write is never used
  9221                           
  9222     14F7  0008               	return
  9223     14F8                     __end_of_i2c_write:
  9224                           
  9225                           	psect	text43
  9226     14DA                     __ptext43:	
  9227 ;; *************** function _i2c_stop *****************
  9228 ;; Defined at:
  9229 ;;		line 35 in file "i2c.c"
  9230 ;; Parameters:    Size  Location     Type
  9231 ;;		None
  9232 ;; Auto vars:     Size  Location     Type
  9233 ;;		None
  9234 ;; Return value:  Size  Location     Type
  9235 ;;                  1    wreg      void 
  9236 ;; Registers used:
  9237 ;;		wreg, status,2, status,0, pclath, cstack
  9238 ;; Tracked objects:
  9239 ;;		On entry : 0/0
  9240 ;;		On exit  : 0/0
  9241 ;;		Unchanged: 0/0
  9242 ;; Data sizes:     COMMON   BANK0   BANK1   BANK3   BANK2
  9243 ;;      Params:         0       0       0       0       0
  9244 ;;      Locals:         0       0       0       0       0
  9245 ;;      Temps:          0       0       0       0       0
  9246 ;;      Totals:         0       0       0       0       0
  9247 ;;Total ram usage:        0 bytes
  9248 ;; Hardware stack levels used: 1
  9249 ;; Hardware stack levels required when called: 2
  9250 ;; This function calls:
  9251 ;;		_i2c_wait_for_idle
  9252 ;; This function is called by:
  9253 ;;		_read_ds1307
  9254 ;;		_write_ds1307
  9255 ;;		_i2c_rep_start
  9256 ;;		_eeprom_at24c04_random_read
  9257 ;;		_eeprom_at24c04_byte_write
  9258 ;; This function uses a non-reentrant model
  9259 ;;
  9260                           
  9261     14DA                     _i2c_stop:	
  9262                           ;psect for function _i2c_stop
  9263                           
  9264     14DA                     l3841:	
  9265                           ;incstack = 0
  9266                           ; Regs used in _i2c_stop: [wreg+status,2+status,0+pclath+cstack]
  9267                           
  9268                           
  9269                           ;i2c.c: 37:     i2c_wait_for_idle();
  9270     14DA  160A  118A  2519  160A  118A  	fcall	_i2c_wait_for_idle
  9271     14DF                     l3843:
  9272                           
  9273                           ;i2c.c: 38:     PEN = 1;
  9274     14DF  1683               	bsf	3,5	;RP0=1, select bank1
  9275     14E0  1303               	bcf	3,6	;RP1=0, select bank1
  9276     14E1  1511               	bsf	17,2	;volatile
  9277     14E2                     l120:
  9278     14E2  0008               	return
  9279     14E3                     __end_of_i2c_stop:
  9280                           
  9281                           	psect	text44
  9282     14D1                     __ptext44:	
  9283 ;; *************** function _i2c_start *****************
  9284 ;; Defined at:
  9285 ;;		line 22 in file "i2c.c"
  9286 ;; Parameters:    Size  Location     Type
  9287 ;;		None
  9288 ;; Auto vars:     Size  Location     Type
  9289 ;;		None
  9290 ;; Return value:  Size  Location     Type
  9291 ;;                  1    wreg      void 
  9292 ;; Registers used:
  9293 ;;		wreg, status,2, status,0, pclath, cstack
  9294 ;; Tracked objects:
  9295 ;;		On entry : 0/0
  9296 ;;		On exit  : 0/0
  9297 ;;		Unchanged: 0/0
  9298 ;; Data sizes:     COMMON   BANK0   BANK1   BANK3   BANK2
  9299 ;;      Params:         0       0       0       0       0
  9300 ;;      Locals:         0       0       0       0       0
  9301 ;;      Temps:          0       0       0       0       0
  9302 ;;      Totals:         0       0       0       0       0
  9303 ;;Total ram usage:        0 bytes
  9304 ;; Hardware stack levels used: 1
  9305 ;; Hardware stack levels required when called: 2
  9306 ;; This function calls:
  9307 ;;		_i2c_wait_for_idle
  9308 ;; This function is called by:
  9309 ;;		_read_ds1307
  9310 ;;		_write_ds1307
  9311 ;;		_i2c_rep_start
  9312 ;;		_eeprom_at24c04_random_read
  9313 ;;		_eeprom_at24c04_byte_write
  9314 ;; This function uses a non-reentrant model
  9315 ;;
  9316                           
  9317     14D1                     _i2c_start:	
  9318                           ;psect for function _i2c_start
  9319                           
  9320     14D1                     l3829:	
  9321                           ;incstack = 0
  9322                           ; Regs used in _i2c_start: [wreg+status,2+status,0+pclath+cstack]
  9323                           
  9324                           
  9325                           ;i2c.c: 24:     i2c_wait_for_idle();
  9326     14D1  160A  118A  2519  160A  118A  	fcall	_i2c_wait_for_idle
  9327     14D6                     l3831:
  9328                           
  9329                           ;i2c.c: 25:     SEN = 1;
  9330     14D6  1683               	bsf	3,5	;RP0=1, select bank1
  9331     14D7  1303               	bcf	3,6	;RP1=0, select bank1
  9332     14D8  1411               	bsf	17,0	;volatile
  9333     14D9                     l114:
  9334     14D9  0008               	return
  9335     14DA                     __end_of_i2c_start:
  9336                           
  9337                           	psect	text45
  9338     1519                     __ptext45:	
  9339 ;; *************** function _i2c_wait_for_idle *****************
  9340 ;; Defined at:
  9341 ;;		line 16 in file "i2c.c"
  9342 ;; Parameters:    Size  Location     Type
  9343 ;;		None
  9344 ;; Auto vars:     Size  Location     Type
  9345 ;;		None
  9346 ;; Return value:  Size  Location     Type
  9347 ;;                  1    wreg      void 
  9348 ;; Registers used:
  9349 ;;		wreg, status,2
  9350 ;; Tracked objects:
  9351 ;;		On entry : 0/0
  9352 ;;		On exit  : 0/0
  9353 ;;		Unchanged: 0/0
  9354 ;; Data sizes:     COMMON   BANK0   BANK1   BANK3   BANK2
  9355 ;;      Params:         0       0       0       0       0
  9356 ;;      Locals:         0       0       0       0       0
  9357 ;;      Temps:          0       0       0       0       0
  9358 ;;      Totals:         0       0       0       0       0
  9359 ;;Total ram usage:        0 bytes
  9360 ;; Hardware stack levels used: 1
  9361 ;; Hardware stack levels required when called: 1
  9362 ;; This function calls:
  9363 ;;		Nothing
  9364 ;; This function is called by:
  9365 ;;		_i2c_start
  9366 ;;		_i2c_stop
  9367 ;;		_i2c_read
  9368 ;;		_i2c_write
  9369 ;; This function uses a non-reentrant model
  9370 ;;
  9371                           
  9372     1519                     _i2c_wait_for_idle:	
  9373                           ;psect for function _i2c_wait_for_idle
  9374                           
  9375     1519                     l3825:	
  9376                           ;incstack = 0
  9377                           ; Regs used in _i2c_wait_for_idle: [wreg+status,2]
  9378                           
  9379     1519                     l108:	
  9380                           ;i2c.c: 19:     while (R_nW || (SSPCON2 & 0x1F));
  9381                           
  9382     1519  1683               	bsf	3,5	;RP0=1, select bank1
  9383     151A  1303               	bcf	3,6	;RP1=0, select bank1
  9384     151B  1914               	btfsc	20,2	;volatile
  9385     151C  2D1E               	goto	u3401
  9386     151D  2D1F               	goto	u3400
  9387     151E                     u3401:
  9388     151E  2D19               	goto	l108
  9389     151F                     u3400:
  9390     151F                     l3827:
  9391     151F  0811               	movf	17,w	;volatile
  9392     1520  391F               	andlw	31
  9393     1521  1D03               	btfss	3,2
  9394     1522  2D24               	goto	u3411
  9395     1523  2D25               	goto	u3410
  9396     1524                     u3411:
  9397     1524  2D19               	goto	l108
  9398     1525                     u3410:
  9399     1525                     l111:
  9400     1525  0008               	return
  9401     1526                     __end_of_i2c_wait_for_idle:
  9402                           
  9403                           	psect	text46
  9404     1526                     __ptext46:	
  9405 ;; *************** function _clear_screen *****************
  9406 ;; Defined at:
  9407 ;;		line 103 in file "c_b_b.c"
  9408 ;; Parameters:    Size  Location     Type
  9409 ;;		None
  9410 ;; Auto vars:     Size  Location     Type
  9411 ;;		None
  9412 ;; Return value:  Size  Location     Type
  9413 ;;                  1    wreg      void 
  9414 ;; Registers used:
  9415 ;;		wreg, status,2, status,0, pclath, cstack
  9416 ;; Tracked objects:
  9417 ;;		On entry : 0/0
  9418 ;;		On exit  : 0/0
  9419 ;;		Unchanged: 0/0
  9420 ;; Data sizes:     COMMON   BANK0   BANK1   BANK3   BANK2
  9421 ;;      Params:         0       0       0       0       0
  9422 ;;      Locals:         0       0       0       0       0
  9423 ;;      Temps:          2       0       0       0       0
  9424 ;;      Totals:         2       0       0       0       0
  9425 ;;Total ram usage:        2 bytes
  9426 ;; Hardware stack levels used: 1
  9427 ;; Hardware stack levels required when called: 2
  9428 ;; This function calls:
  9429 ;;		_clcd_write
  9430 ;; This function is called by:
  9431 ;;		_main
  9432 ;;		_login
  9433 ;;		_login_menu
  9434 ;;		_view_log
  9435 ;;		_set_time
  9436 ;;		_change_password
  9437 ;; This function uses a non-reentrant model
  9438 ;;
  9439                           
  9440     1526                     _clear_screen:	
  9441                           ;psect for function _clear_screen
  9442                           
  9443     1526                     l4015:	
  9444                           ;incstack = 0
  9445                           ; Regs used in _clear_screen: [wreg+status,2+status,0+pclath+cstack]
  9446                           
  9447                           
  9448                           ;c_b_b.c: 105:     clcd_write(0x01, 0);
  9449     1526  01F2               	clrf	clcd_write@mode
  9450     1527  3001               	movlw	1
  9451     1528  160A  118A  25B7  160A  118A  	fcall	_clcd_write
  9452     152D                     l4017:
  9453                           
  9454                           ;c_b_b.c: 106:     _delay((unsigned long)((500)*(20000000/4000000.0)));
  9455     152D  3004               	movlw	4
  9456     152E  00F7               	movwf	??_clear_screen+1
  9457     152F  303D               	movlw	61
  9458     1530  00F6               	movwf	??_clear_screen
  9459     1531                     u5377:
  9460     1531  0BF6               	decfsz	??_clear_screen,f
  9461     1532  2D31               	goto	u5377
  9462     1533  0BF7               	decfsz	??_clear_screen+1,f
  9463     1534  2D31               	goto	u5377
  9464     1535  2D36               	nop2
  9465     1536                     l329:
  9466     1536  0008               	return
  9467     1537                     __end_of_clear_screen:
  9468                           
  9469                           	psect	text47
  9470     156F                     __ptext47:	
  9471 ;; *************** function _clcd_putch *****************
  9472 ;; Defined at:
  9473 ;;		line 49 in file "clcd.c"
  9474 ;; Parameters:    Size  Location     Type
  9475 ;;  data            1    wreg     const unsigned char 
  9476 ;;  addr            1    9[COMMON] unsigned char 
  9477 ;; Auto vars:     Size  Location     Type
  9478 ;;  data            1    4[BANK0 ] const unsigned char 
  9479 ;; Return value:  Size  Location     Type
  9480 ;;                  1    wreg      void 
  9481 ;; Registers used:
  9482 ;;		wreg, status,2, status,0, pclath, cstack
  9483 ;; Tracked objects:
  9484 ;;		On entry : 0/0
  9485 ;;		On exit  : 0/0
  9486 ;;		Unchanged: 0/0
  9487 ;; Data sizes:     COMMON   BANK0   BANK1   BANK3   BANK2
  9488 ;;      Params:         1       0       0       0       0
  9489 ;;      Locals:         0       1       0       0       0
  9490 ;;      Temps:          0       0       0       0       0
  9491 ;;      Totals:         1       1       0       0       0
  9492 ;;Total ram usage:        2 bytes
  9493 ;; Hardware stack levels used: 1
  9494 ;; Hardware stack levels required when called: 2
  9495 ;; This function calls:
  9496 ;;		_clcd_write
  9497 ;; This function is called by:
  9498 ;;		_display_time
  9499 ;;		_display_dash_board
  9500 ;;		_login
  9501 ;;		_login_menu
  9502 ;;		_view_log
  9503 ;;		_set_time
  9504 ;;		_change_password
  9505 ;; This function uses a non-reentrant model
  9506 ;;
  9507                           
  9508     156F                     _clcd_putch:	
  9509                           ;psect for function _clcd_putch
  9510                           
  9511                           
  9512                           ;incstack = 0
  9513                           ; Regs used in _clcd_putch: [wreg+status,2+status,0+pclath+cstack]
  9514                           ;clcd_putch@data stored from wreg
  9515     156F  1283               	bcf	3,5	;RP0=0, select bank0
  9516     1570  1303               	bcf	3,6	;RP1=0, select bank0
  9517     1571  00A4               	movwf	clcd_putch@data
  9518     1572                     l3893:
  9519                           
  9520                           ;clcd.c: 49: void clcd_putch(const char data, unsigned char addr);clcd.c: 50: {;clcd.c: 
      +                          51:     clcd_write(addr, 0);
  9521     1572  01F2               	clrf	clcd_write@mode
  9522     1573  0879               	movf	clcd_putch@addr,w
  9523     1574  160A  118A  25B7  160A  118A  	fcall	_clcd_write
  9524                           
  9525                           ;clcd.c: 52:     clcd_write(data, 1);
  9526     1579  01F2               	clrf	clcd_write@mode
  9527     157A  0AF2               	incf	clcd_write@mode,f
  9528     157B  1283               	bcf	3,5	;RP0=0, select bank0
  9529     157C  1303               	bcf	3,6	;RP1=0, select bank0
  9530     157D  0824               	movf	clcd_putch@data,w
  9531     157E  160A  118A  25B7  160A  118A  	fcall	_clcd_write
  9532     1583                     l26:
  9533     1583  0008               	return
  9534     1584                     __end_of_clcd_putch:
  9535                           
  9536                           	psect	text48
  9537     173D                     __ptext48:	
  9538 ;; *************** function _clcd_print *****************
  9539 ;; Defined at:
  9540 ;;		line 55 in file "clcd.c"
  9541 ;; Parameters:    Size  Location     Type
  9542 ;;  str             2    6[COMMON] PTR const unsigned char 
  9543 ;;		 -> STR_32(17), STR_31(15), STR_30(10), STR_29(17), 
  9544 ;;		 -> STR_26(12), STR_25(17), STR_24(8), STR_23(11), 
  9545 ;;		 -> STR_22(9), STR_21(13), STR_20(10), STR_19(9), 
  9546 ;;		 -> STR_18(15), STR_17(16), STR_16(15), STR_15(17), 
  9547 ;;		 -> STR_14(15), STR_12(17), STR_11(5), STR_10(11), 
  9548 ;;		 -> STR_9(16), main@event(3), 
  9549 ;;  addr            1    8[COMMON] unsigned char 
  9550 ;; Auto vars:     Size  Location     Type
  9551 ;;		None
  9552 ;; Return value:  Size  Location     Type
  9553 ;;                  1    wreg      void 
  9554 ;; Registers used:
  9555 ;;		wreg, fsr0l, fsr0h, status,2, status,0, btemp+1, pclath, cstack
  9556 ;; Tracked objects:
  9557 ;;		On entry : 0/0
  9558 ;;		On exit  : 0/0
  9559 ;;		Unchanged: 0/0
  9560 ;; Data sizes:     COMMON   BANK0   BANK1   BANK3   BANK2
  9561 ;;      Params:         3       0       0       0       0
  9562 ;;      Locals:         0       0       0       0       0
  9563 ;;      Temps:          0       0       0       0       0
  9564 ;;      Totals:         3       0       0       0       0
  9565 ;;Total ram usage:        3 bytes
  9566 ;; Hardware stack levels used: 1
  9567 ;; Hardware stack levels required when called: 2
  9568 ;; This function calls:
  9569 ;;		_clcd_write
  9570 ;; This function is called by:
  9571 ;;		_main
  9572 ;;		_display_dash_board
  9573 ;;		_login
  9574 ;;		_login_menu
  9575 ;;		_view_log
  9576 ;;		_clear_log
  9577 ;;		_set_time
  9578 ;;		_change_password
  9579 ;; This function uses a non-reentrant model
  9580 ;;
  9581                           
  9582     173D                     _clcd_print:	
  9583                           ;psect for function _clcd_print
  9584                           
  9585     173D                     l3981:	
  9586                           ;incstack = 0
  9587                           ; Regs used in _clcd_print: [wreg-fsr0h+status,2+status,0+btemp+1+pclath+cstack]
  9588                           
  9589                           
  9590                           ;clcd.c: 55: void clcd_print(const char *str, unsigned char addr);clcd.c: 56: {;clcd.c: 
      +                          57:     clcd_write(addr, 0);
  9591     173D  01F2               	clrf	clcd_write@mode
  9592     173E  0878               	movf	clcd_print@addr,w
  9593     173F  160A  118A  25B7  160A  118A  	fcall	_clcd_write
  9594                           
  9595                           ;clcd.c: 59:     while (*str != '\0')
  9596     1744  2F5B               	goto	l3987
  9597     1745                     l3983:
  9598                           
  9599                           ;clcd.c: 60:     {;clcd.c: 61:         clcd_write(*str, 1);
  9600     1745  01F2               	clrf	clcd_write@mode
  9601     1746  0AF2               	incf	clcd_write@mode,f
  9602     1747  0877               	movf	clcd_print@str+1,w
  9603     1748  00FF               	movwf	btemp+1
  9604     1749  0876               	movf	clcd_print@str,w
  9605     174A  0084               	movwf	4
  9606     174B  160A  118A  2000  160A  118A  	fcall	stringtab
  9607     1750  160A  118A  25B7  160A  118A  	fcall	_clcd_write
  9608     1755                     l3985:
  9609                           
  9610                           ;clcd.c: 62:         str++;
  9611     1755  3001               	movlw	1
  9612     1756  07F6               	addwf	clcd_print@str,f
  9613     1757  1803               	skipnc
  9614     1758  0AF7               	incf	clcd_print@str+1,f
  9615     1759  3000               	movlw	0
  9616     175A  07F7               	addwf	clcd_print@str+1,f
  9617     175B                     l3987:
  9618                           
  9619                           ;clcd.c: 59:     while (*str != '\0')
  9620     175B  0877               	movf	clcd_print@str+1,w
  9621     175C  1283               	bcf	3,5	;RP0=0, select bank0
  9622     175D  1303               	bcf	3,6	;RP1=0, select bank0
  9623     175E  00FF               	movwf	btemp+1
  9624     175F  0876               	movf	clcd_print@str,w
  9625     1760  0084               	movwf	4
  9626     1761  160A  118A  2000  160A  118A  	fcall	stringtab
  9627     1766  3A00               	xorlw	0
  9628     1767  1D03               	skipz
  9629     1768  2F6A               	goto	u3561
  9630     1769  2F6B               	goto	u3560
  9631     176A                     u3561:
  9632     176A  2F45               	goto	l3983
  9633     176B                     u3560:
  9634     176B                     l32:
  9635     176B  0008               	return
  9636     176C                     __end_of_clcd_print:
  9637                           
  9638                           	psect	text49
  9639     15B7                     __ptext49:	
  9640 ;; *************** function _clcd_write *****************
  9641 ;; Defined at:
  9642 ;;		line 4 in file "clcd.c"
  9643 ;; Parameters:    Size  Location     Type
  9644 ;;  byte            1    wreg     unsigned char 
  9645 ;;  mode            1    2[COMMON] unsigned char 
  9646 ;; Auto vars:     Size  Location     Type
  9647 ;;  byte            1    5[COMMON] unsigned char 
  9648 ;; Return value:  Size  Location     Type
  9649 ;;                  1    wreg      void 
  9650 ;; Registers used:
  9651 ;;		wreg
  9652 ;; Tracked objects:
  9653 ;;		On entry : 0/0
  9654 ;;		On exit  : 0/0
  9655 ;;		Unchanged: 0/0
  9656 ;; Data sizes:     COMMON   BANK0   BANK1   BANK3   BANK2
  9657 ;;      Params:         1       0       0       0       0
  9658 ;;      Locals:         1       0       0       0       0
  9659 ;;      Temps:          2       0       0       0       0
  9660 ;;      Totals:         4       0       0       0       0
  9661 ;;Total ram usage:        4 bytes
  9662 ;; Hardware stack levels used: 1
  9663 ;; Hardware stack levels required when called: 1
  9664 ;; This function calls:
  9665 ;;		Nothing
  9666 ;; This function is called by:
  9667 ;;		_init_display_controller
  9668 ;;		_clcd_putch
  9669 ;;		_clcd_print
  9670 ;;		_main
  9671 ;;		_clear_screen
  9672 ;;		_login
  9673 ;; This function uses a non-reentrant model
  9674 ;;
  9675                           
  9676     15B7                     _clcd_write:	
  9677                           ;psect for function _clcd_write
  9678                           
  9679                           
  9680                           ;incstack = 0
  9681                           ; Regs used in _clcd_write: [wreg]
  9682                           ;clcd_write@byte stored from wreg
  9683     15B7  00F5               	movwf	clcd_write@byte
  9684     15B8                     l3845:
  9685                           
  9686                           ;clcd.c: 4: void clcd_write(unsigned char byte, unsigned char mode);clcd.c: 5: {;clcd.c:
      +                           6:     RE2 = mode;
  9687     15B8  1872               	btfsc	clcd_write@mode,0
  9688     15B9  2DBB               	goto	u3421
  9689     15BA  2DBF               	goto	u3420
  9690     15BB                     u3421:
  9691     15BB  1283               	bcf	3,5	;RP0=0, select bank0
  9692     15BC  1303               	bcf	3,6	;RP1=0, select bank0
  9693     15BD  1509               	bsf	9,2	;volatile
  9694     15BE  2DC2               	goto	u3434
  9695     15BF                     u3420:
  9696     15BF  1283               	bcf	3,5	;RP0=0, select bank0
  9697     15C0  1303               	bcf	3,6	;RP1=0, select bank0
  9698     15C1  1109               	bcf	9,2	;volatile
  9699     15C2                     u3434:
  9700     15C2                     l3847:
  9701                           
  9702                           ;clcd.c: 7:     PORTD = byte;
  9703     15C2  0875               	movf	clcd_write@byte,w
  9704     15C3  0088               	movwf	8	;volatile
  9705     15C4                     l3849:
  9706                           
  9707                           ;clcd.c: 9:     RE1 = 1;
  9708     15C4  1489               	bsf	9,1	;volatile
  9709                           
  9710                           ;clcd.c: 10:     _delay((unsigned long)((100)*(20000000/4000000.0)));
  9711     15C5  30A6               	movlw	166
  9712     15C6  00F3               	movwf	??_clcd_write
  9713     15C7                     u5387:
  9714     15C7  0BF3               	decfsz	??_clcd_write,f
  9715     15C8  2DC7               	goto	u5387
  9716     15C9  0000               	nop
  9717     15CA                     l3851:
  9718                           
  9719                           ;clcd.c: 11:     RE1 = 0;
  9720     15CA  1283               	bcf	3,5	;RP0=0, select bank0
  9721     15CB  1303               	bcf	3,6	;RP1=0, select bank0
  9722     15CC  1089               	bcf	9,1	;volatile
  9723                           
  9724                           ;clcd.c: 13:     _delay((unsigned long)((4100)*(20000000/4000000.0)));
  9725     15CD  301B               	movlw	27
  9726     15CE  00F4               	movwf	??_clcd_write+1
  9727     15CF  309E               	movlw	158
  9728     15D0  00F3               	movwf	??_clcd_write
  9729     15D1                     u5397:
  9730     15D1  0BF3               	decfsz	??_clcd_write,f
  9731     15D2  2DD1               	goto	u5397
  9732     15D3  0BF4               	decfsz	??_clcd_write+1,f
  9733     15D4  2DD1               	goto	u5397
  9734     15D5  0000               	nop
  9735     15D6                     l17:
  9736     15D6  0008               	return
  9737     15D7                     __end_of_clcd_write:
  9738                           
  9739                           	psect	text50
  9740     094C                     __ptext50:	
  9741 ;; *************** function ___lwdiv *****************
  9742 ;; Defined at:
  9743 ;;		line 5 in file "/Applications/microchip/xc8/v2.41/pic/sources/c90/common/lwdiv.c"
  9744 ;; Parameters:    Size  Location     Type
  9745 ;;  divisor         2    6[COMMON] unsigned int 
  9746 ;;  dividend        2    8[COMMON] unsigned int 
  9747 ;; Auto vars:     Size  Location     Type
  9748 ;;  quotient        2    2[BANK0 ] unsigned int 
  9749 ;;  counter         1    1[BANK0 ] unsigned char 
  9750 ;; Return value:  Size  Location     Type
  9751 ;;                  2    6[COMMON] unsigned int 
  9752 ;; Registers used:
  9753 ;;		wreg, status,2, status,0
  9754 ;; Tracked objects:
  9755 ;;		On entry : 0/0
  9756 ;;		On exit  : 0/0
  9757 ;;		Unchanged: 0/0
  9758 ;; Data sizes:     COMMON   BANK0   BANK1   BANK3   BANK2
  9759 ;;      Params:         4       0       0       0       0
  9760 ;;      Locals:         0       3       0       0       0
  9761 ;;      Temps:          0       1       0       0       0
  9762 ;;      Totals:         4       4       0       0       0
  9763 ;;Total ram usage:        8 bytes
  9764 ;; Hardware stack levels used: 1
  9765 ;; Hardware stack levels required when called: 1
  9766 ;; This function calls:
  9767 ;;		Nothing
  9768 ;; This function is called by:
  9769 ;;		_main
  9770 ;; This function uses a non-reentrant model
  9771 ;;
  9772                           
  9773     094C                     ___lwdiv:	
  9774                           ;psect for function ___lwdiv
  9775                           
  9776     094C                     l4787:	
  9777                           ;incstack = 0
  9778                           ; Regs used in ___lwdiv: [wreg+status,2+status,0]
  9779                           
  9780     094C  1283               	bcf	3,5	;RP0=0, select bank0
  9781     094D  1303               	bcf	3,6	;RP1=0, select bank0
  9782     094E  01A2               	clrf	___lwdiv@quotient
  9783     094F  01A3               	clrf	___lwdiv@quotient+1
  9784     0950                     l4789:
  9785     0950  0876               	movf	___lwdiv@divisor,w
  9786     0951  0477               	iorwf	___lwdiv@divisor+1,w
  9787     0952  1903               	btfsc	3,2
  9788     0953  2955               	goto	u4701
  9789     0954  2956               	goto	u4700
  9790     0955                     u4701:
  9791     0955  298D               	goto	l4809
  9792     0956                     u4700:
  9793     0956                     l4791:
  9794     0956  01A1               	clrf	___lwdiv@counter
  9795     0957  0AA1               	incf	___lwdiv@counter,f
  9796     0958  2964               	goto	l4797
  9797     0959                     l4793:
  9798     0959  3001               	movlw	1
  9799     095A                     u4715:
  9800     095A  1003               	clrc
  9801     095B  0DF6               	rlf	___lwdiv@divisor,f
  9802     095C  0DF7               	rlf	___lwdiv@divisor+1,f
  9803     095D  3EFF               	addlw	-1
  9804     095E  1D03               	skipz
  9805     095F  295A               	goto	u4715
  9806     0960                     l4795:
  9807     0960  3001               	movlw	1
  9808     0961  00A0               	movwf	??___lwdiv
  9809     0962  0820               	movf	??___lwdiv,w
  9810     0963  07A1               	addwf	___lwdiv@counter,f
  9811     0964                     l4797:
  9812     0964  1FF7               	btfss	___lwdiv@divisor+1,7
  9813     0965  2967               	goto	u4721
  9814     0966  2968               	goto	u4720
  9815     0967                     u4721:
  9816     0967  2959               	goto	l4793
  9817     0968                     u4720:
  9818     0968                     l4799:
  9819     0968  3001               	movlw	1
  9820     0969                     u4735:
  9821     0969  1003               	clrc
  9822     096A  0DA2               	rlf	___lwdiv@quotient,f
  9823     096B  0DA3               	rlf	___lwdiv@quotient+1,f
  9824     096C  3EFF               	addlw	-1
  9825     096D  1D03               	skipz
  9826     096E  2969               	goto	u4735
  9827     096F  0877               	movf	___lwdiv@divisor+1,w
  9828     0970  0279               	subwf	___lwdiv@dividend+1,w
  9829     0971  1D03               	skipz
  9830     0972  2975               	goto	u4745
  9831     0973  0876               	movf	___lwdiv@divisor,w
  9832     0974  0278               	subwf	___lwdiv@dividend,w
  9833     0975                     u4745:
  9834     0975  1C03               	skipc
  9835     0976  2978               	goto	u4741
  9836     0977  2979               	goto	u4740
  9837     0978                     u4741:
  9838     0978  2980               	goto	l4805
  9839     0979                     u4740:
  9840     0979                     l4801:
  9841     0979  0876               	movf	___lwdiv@divisor,w
  9842     097A  02F8               	subwf	___lwdiv@dividend,f
  9843     097B  0877               	movf	___lwdiv@divisor+1,w
  9844     097C  1C03               	skipc
  9845     097D  03F9               	decf	___lwdiv@dividend+1,f
  9846     097E  02F9               	subwf	___lwdiv@dividend+1,f
  9847     097F                     l4803:
  9848     097F  1422               	bsf	___lwdiv@quotient,0
  9849     0980                     l4805:
  9850     0980  3001               	movlw	1
  9851     0981                     u4755:
  9852     0981  1003               	clrc
  9853     0982  0CF7               	rrf	___lwdiv@divisor+1,f
  9854     0983  0CF6               	rrf	___lwdiv@divisor,f
  9855     0984  3EFF               	addlw	-1
  9856     0985  1D03               	skipz
  9857     0986  2981               	goto	u4755
  9858     0987                     l4807:
  9859     0987  3001               	movlw	1
  9860     0988  02A1               	subwf	___lwdiv@counter,f
  9861     0989  1D03               	btfss	3,2
  9862     098A  298C               	goto	u4761
  9863     098B  298D               	goto	u4760
  9864     098C                     u4761:
  9865     098C  2968               	goto	l4799
  9866     098D                     u4760:
  9867     098D                     l4809:
  9868     098D  0823               	movf	___lwdiv@quotient+1,w
  9869     098E  00F7               	movwf	?___lwdiv+1
  9870     098F  0822               	movf	___lwdiv@quotient,w
  9871     0990  00F6               	movwf	?___lwdiv
  9872     0991                     l928:
  9873     0991  0008               	return
  9874     0992                     __end_of___lwdiv:
  9875                           
  9876                           	psect	text51
  9877     0C08                     __ptext51:	
  9878 ;; *************** function _isr *****************
  9879 ;; Defined at:
  9880 ;;		line 5 in file "isr.c"
  9881 ;; Parameters:    Size  Location     Type
  9882 ;;		None
  9883 ;; Auto vars:     Size  Location     Type
  9884 ;;		None
  9885 ;; Return value:  Size  Location     Type
  9886 ;;                  1    wreg      void 
  9887 ;; Registers used:
  9888 ;;		wreg, status,2, status,0
  9889 ;; Tracked objects:
  9890 ;;		On entry : 0/0
  9891 ;;		On exit  : 0/0
  9892 ;;		Unchanged: 0/0
  9893 ;; Data sizes:     COMMON   BANK0   BANK1   BANK3   BANK2
  9894 ;;      Params:         0       0       0       0       0
  9895 ;;      Locals:         0       0       0       0       0
  9896 ;;      Temps:          2       0       0       0       0
  9897 ;;      Totals:         2       0       0       0       0
  9898 ;;Total ram usage:        2 bytes
  9899 ;; Hardware stack levels used: 1
  9900 ;; This function calls:
  9901 ;;		Nothing
  9902 ;; This function is called by:
  9903 ;;		Interrupt level 1
  9904 ;; This function uses a non-reentrant model
  9905 ;;
  9906                           
  9907     0C08                     _isr:	
  9908                           ;psect for function _isr
  9909                           
  9910     0C08                     i1l3745:
  9911                           
  9912                           ;isr.c: 7:     static unsigned long int count = 0;;isr.c: 9:     if (TMR2IF == 1)
  9913     0C08  1283               	bcf	3,5	;RP0=0, select bank0
  9914     0C09  1303               	bcf	3,6	;RP1=0, select bank0
  9915     0C0A  1C8C               	btfss	12,1	;volatile
  9916     0C0B  2C0D               	goto	u330_21
  9917     0C0C  2C0E               	goto	u330_20
  9918     0C0D                     u330_21:
  9919     0C0D  2C6C               	goto	i1l524
  9920     0C0E                     u330_20:
  9921     0C0E                     i1l3747:
  9922                           
  9923                           ;isr.c: 10:     {;isr.c: 11:         if(count == 10000)
  9924     0C0E  3010               	movlw	16
  9925     0C0F  1683               	bsf	3,5	;RP0=1, select bank1
  9926     0C10  1303               	bcf	3,6	;RP1=0, select bank1
  9927     0C11  064E               	xorwf	isr@count^(0+128),w
  9928     0C12  3027               	movlw	39
  9929     0C13  1903               	skipnz
  9930     0C14  064F               	xorwf	(isr@count+1)^(0+128),w
  9931     0C15  0450               	iorwf	(isr@count+2)^(0+128),w
  9932     0C16  0451               	iorwf	(isr@count+3)^(0+128),w
  9933     0C17  1D03               	btfss	3,2
  9934     0C18  2C1A               	goto	u331_21
  9935     0C19  2C1B               	goto	u331_20
  9936     0C1A                     u331_21:
  9937     0C1A  2C25               	goto	i1l520
  9938     0C1B                     u331_20:
  9939     0C1B                     i1l3749:
  9940                           
  9941                           ;isr.c: 12:         {;isr.c: 13:             blink = !blink;
  9942     0C1B  1283               	bcf	3,5	;RP0=0, select bank0
  9943     0C1C  1303               	bcf	3,6	;RP1=0, select bank0
  9944     0C1D  084F               	movf	_blink,w
  9945     0C1E  1903               	btfsc	3,2
  9946     0C1F  2C21               	goto	u332_21
  9947     0C20  2C23               	goto	u332_20
  9948     0C21                     u332_21:
  9949     0C21  3001               	movlw	1
  9950     0C22  2C24               	goto	u333_20
  9951     0C23                     u332_20:
  9952     0C23  3000               	movlw	0
  9953     0C24                     u333_20:
  9954     0C24  00CF               	movwf	_blink
  9955     0C25                     i1l520:	
  9956                           ;isr.c: 14:         }
  9957                           
  9958                           
  9959                           ;isr.c: 16:         if (++count == 20000)
  9960     0C25  3001               	movlw	1
  9961     0C26  1683               	bsf	3,5	;RP0=1, select bank1
  9962     0C27  1303               	bcf	3,6	;RP1=0, select bank1
  9963     0C28  07CE               	addwf	isr@count^(0+128),f
  9964     0C29  3000               	movlw	0
  9965     0C2A  1803               	skipnc
  9966     0C2B  3001               	movlw	1
  9967     0C2C  07CF               	addwf	(isr@count+1)^(0+128),f
  9968     0C2D  3000               	movlw	0
  9969     0C2E  1803               	skipnc
  9970     0C2F  3001               	movlw	1
  9971     0C30  07D0               	addwf	(isr@count+2)^(0+128),f
  9972     0C31  3000               	movlw	0
  9973     0C32  1803               	skipnc
  9974     0C33  3001               	movlw	1
  9975     0C34  07D1               	addwf	(isr@count+3)^(0+128),f
  9976     0C35  3020               	movlw	32
  9977     0C36  064E               	xorwf	isr@count^(0+128),w
  9978     0C37  304E               	movlw	78
  9979     0C38  1903               	skipnz
  9980     0C39  064F               	xorwf	(isr@count+1)^(0+128),w
  9981     0C3A  0450               	iorwf	(isr@count+2)^(0+128),w
  9982     0C3B  0451               	iorwf	(isr@count+3)^(0+128),w
  9983     0C3C  1D03               	btfss	3,2
  9984     0C3D  2C3F               	goto	u334_21
  9985     0C3E  2C40               	goto	u334_20
  9986     0C3F                     u334_21:
  9987     0C3F  2C69               	goto	i1l3763
  9988     0C40                     u334_20:
  9989     0C40                     i1l3751:
  9990                           
  9991                           ;isr.c: 17:         {;isr.c: 18:             blink = !blink;
  9992     0C40  1283               	bcf	3,5	;RP0=0, select bank0
  9993     0C41  1303               	bcf	3,6	;RP1=0, select bank0
  9994     0C42  084F               	movf	_blink,w
  9995     0C43  1903               	btfsc	3,2
  9996     0C44  2C46               	goto	u335_21
  9997     0C45  2C48               	goto	u335_20
  9998     0C46                     u335_21:
  9999     0C46  3001               	movlw	1
 10000     0C47  2C49               	goto	u336_20
 10001     0C48                     u335_20:
 10002     0C48  3000               	movlw	0
 10003     0C49                     u336_20:
 10004     0C49  00CF               	movwf	_blink
 10005     0C4A                     i1l3753:
 10006                           
 10007                           ;isr.c: 19:             count = 0;
 10008     0C4A  3000               	movlw	0
 10009     0C4B  1683               	bsf	3,5	;RP0=1, select bank1
 10010     0C4C  1303               	bcf	3,6	;RP1=0, select bank1
 10011     0C4D  00D1               	movwf	(isr@count+3)^(0+128)
 10012     0C4E  3000               	movlw	0
 10013     0C4F  00D0               	movwf	(isr@count+2)^(0+128)
 10014     0C50  3000               	movlw	0
 10015     0C51  00CF               	movwf	(isr@count+1)^(0+128)
 10016     0C52  3000               	movlw	0
 10017     0C53  00CE               	movwf	isr@count^(0+128)
 10018     0C54                     i1l3755:
 10019                           
 10020                           ;isr.c: 20:             if(sec > 0)
 10021     0C54  1283               	bcf	3,5	;RP0=0, select bank0
 10022     0C55  1303               	bcf	3,6	;RP1=0, select bank0
 10023     0C56  0842               	movf	_sec,w
 10024     0C57  1903               	btfsc	3,2
 10025     0C58  2C5A               	goto	u337_21
 10026     0C59  2C5B               	goto	u337_20
 10027     0C5A                     u337_21:
 10028     0C5A  2C5D               	goto	i1l522
 10029     0C5B                     u337_20:
 10030     0C5B                     i1l3757:
 10031                           
 10032                           ;isr.c: 21:             {;isr.c: 22:                 sec--;
 10033     0C5B  3001               	movlw	1
 10034     0C5C  02C2               	subwf	_sec,f
 10035     0C5D                     i1l522:	
 10036                           ;isr.c: 23:             }
 10037                           
 10038                           
 10039                           ;isr.c: 25:             if(sec == 0 && return_time > 0)
 10040     0C5D  0842               	movf	_sec,w
 10041     0C5E  1D03               	btfss	3,2
 10042     0C5F  2C61               	goto	u338_21
 10043     0C60  2C62               	goto	u338_20
 10044     0C61                     u338_21:
 10045     0C61  2C69               	goto	i1l3763
 10046     0C62                     u338_20:
 10047     0C62                     i1l3759:
 10048     0C62  084D               	movf	_return_time,w
 10049     0C63  1903               	btfsc	3,2
 10050     0C64  2C66               	goto	u339_21
 10051     0C65  2C67               	goto	u339_20
 10052     0C66                     u339_21:
 10053     0C66  2C69               	goto	i1l3763
 10054     0C67                     u339_20:
 10055     0C67                     i1l3761:
 10056                           
 10057                           ;isr.c: 26:             {;isr.c: 27:                 return_time--;
 10058     0C67  3001               	movlw	1
 10059     0C68  02CD               	subwf	_return_time,f
 10060     0C69                     i1l3763:
 10061                           
 10062                           ;isr.c: 31:         TMR2IF = 0;
 10063     0C69  1283               	bcf	3,5	;RP0=0, select bank0
 10064     0C6A  1303               	bcf	3,6	;RP1=0, select bank0
 10065     0C6B  108C               	bcf	12,1	;volatile
 10066     0C6C                     i1l524:
 10067     0C6C  0871               	movf	??_isr+1,w
 10068     0C6D  008A               	movwf	10
 10069     0C6E  0E70               	swapf	??_isr,w
 10070     0C6F  0083               	movwf	3
 10071     0C70  0EFE               	swapf	btemp,f
 10072     0C71  0E7E               	swapf	btemp,w
 10073     0C72  0009               	retfie
 10074     0C73                     __end_of_isr:
 10075     007E                     btemp	set	126	;btemp
 10076     007E                     wtemp0	set	126
 10077                           
 10078                           	psect	intentry
 10079     0004                     __pintentry:	
 10080                           ;incstack = 0
 10081                           ; Regs used in _isr: [wreg+status,2+status,0]
 10082                           
 10083     0004                     interrupt_function:
 10084     007E                     saved_w	set	btemp
 10085     0004  00FE               	movwf	btemp
 10086     0005  0E03               	swapf	3,w
 10087     0006  00F0               	movwf	??_isr
 10088     0007  080A               	movf	10,w
 10089     0008  00F1               	movwf	??_isr+1
 10090     0009  120A  158A  2C08   	ljmp	_isr
 10091                           
 10092                           	psect	config
 10093                           
 10094                           ;Config register CONFIG @ 0x2007
 10095                           ;	Oscillator Selection bits
 10096                           ;	FOSC = 0x3, unprogrammed default
 10097                           ;	Watchdog Timer Enable bit
 10098                           ;	WDTE = OFF, WDT disabled
 10099                           ;	Power-up Timer Enable bit
 10100                           ;	PWRTE = 0x1, unprogrammed default
 10101                           ;	FLASH Program Memory Code Protection bits
 10102                           ;	CP = 0x303, unprogrammed default
 10103                           ;	Brown-out Reset Enable bit
 10104                           ;	BOREN = 0x1, unprogrammed default
 10105                           ;	Low Voltage In-Circuit Serial Programming Enable bit
 10106                           ;	LVP = 0x1, unprogrammed default
 10107                           ;	Data EE Memory Code Protection
 10108                           ;	CPD = 0x1, unprogrammed default
 10109                           ;	FLASH Program Memory Write Enable
 10110                           ;	WRT = 0x1, unprogrammed default
 10111                           ;	In-Circuit Debugger Mode bit
 10112                           ;	DEBUG = 0x1, unprogrammed default
 10113     2007                     	org	8199
 10114     2007  3FFB               	dw	16379

Data Sizes:
    Strings     293
    Constant    0
    Data        54
    BSS         61
    Persistent  0
    Stack       0

Auto Spaces:
    Space          Size  Autos    Used
    COMMON           14     10      12
    BANK0            80     25      50
    BANK1            80      0      72
    BANK3            96     33      49
    BANK2            96      0       0

Pointer List with Targets:

    strncpy@from	PTR const unsigned char  size(2) Largest target is 7
		 -> time(BANK0[7]), main@event(BANK3[3]), 

    strncpy@to	PTR unsigned char  size(1) Largest target is 11
		 -> log(BANK1[11]), 

    strncpy@cp	PTR unsigned char  size(1) Largest target is 11
		 -> log(BANK1[11]), 

    strncmp@s2	PTR const unsigned char  size(1) Largest target is 4
		 -> login@npassword(BANK0[4]), 

    strncmp@s1	PTR const unsigned char  size(1) Largest target is 4
		 -> login@spassword(BANK0[4]), 

    strcpy@from	PTR const unsigned char  size(2) Largest target is 3
		 -> STR_8(CODE[3]), STR_6(CODE[3]), STR_5(CODE[3]), STR_4(CODE[3]), 
		 -> STR_3(CODE[3]), STR_2(CODE[3]), STR_1(CODE[3]), 

    strcpy@to	PTR unsigned char  size(1) Largest target is 3
		 -> main@event(BANK3[3]), 

    strcpy@cp	PTR unsigned char  size(1) Largest target is 3
		 -> main@event(BANK3[3]), 

    strcmp@s2	PTR const unsigned char  size(2) Largest target is 3
		 -> STR_13(CODE[3]), 

    strcmp@s1	PTR const unsigned char  size(1) Largest target is 3
		 -> main@event(BANK3[3]), 

    puts@s	PTR const unsigned char  size(2) Largest target is 21
		 -> STR_28(CODE[2]), STR_27(CODE[21]), data(BANK1[11]), 

    eeprom_at24c04_str_write@data	PTR unsigned char  size(2) Largest target is 11
		 -> change_password@npassword(BANK0[4]), c_log(BANK1[11]), log(BANK1[11]), STR_7(CODE[5]), 

    login_menu@menu	PTR unsigned char [5] size(2) Largest target is 13
		 -> STR_23(CODE[11]), STR_22(CODE[9]), STR_21(CODE[13]), STR_20(CODE[10]), 
		 -> STR_19(CODE[9]), 

    login_menu@F990	PTR unsigned char [5] size(2) Largest target is 13
		 -> STR_23(CODE[11]), STR_22(CODE[9]), STR_21(CODE[13]), STR_20(CODE[10]), 
		 -> STR_19(CODE[9]), 

    log_car_event@event	PTR unsigned char  size(1) Largest target is 3
		 -> main@event(BANK3[3]), 

    sp__strncpy	PTR unsigned char  size(1) Largest target is 11
		 -> log(BANK1[11]), 

    display_dash_board@event	PTR unsigned char  size(1) Largest target is 3
		 -> main@event(BANK3[3]), 

    sp__strcpy	PTR unsigned char  size(1) Largest target is 3
		 -> main@event(BANK3[3]), 

    main@gear	PTR unsigned char [6] size(2) Largest target is 3
		 -> STR_6(CODE[3]), STR_5(CODE[3]), STR_4(CODE[3]), STR_3(CODE[3]), 
		 -> STR_2(CODE[3]), STR_1(CODE[3]), 

    main@F961	PTR unsigned char [6] size(2) Largest target is 3
		 -> STR_6(CODE[3]), STR_5(CODE[3]), STR_4(CODE[3]), STR_3(CODE[3]), 
		 -> STR_2(CODE[3]), STR_1(CODE[3]), 

    clcd_print@str	PTR const unsigned char  size(2) Largest target is 17
		 -> STR_32(CODE[17]), STR_31(CODE[15]), STR_30(CODE[10]), STR_29(CODE[17]), 
		 -> STR_26(CODE[12]), STR_25(CODE[17]), STR_24(CODE[8]), STR_23(CODE[11]), 
		 -> STR_22(CODE[9]), STR_21(CODE[13]), STR_20(CODE[10]), STR_19(CODE[9]), 
		 -> STR_18(CODE[15]), STR_17(CODE[16]), STR_16(CODE[15]), STR_15(CODE[17]), 
		 -> STR_14(CODE[15]), STR_12(CODE[17]), STR_11(CODE[5]), STR_10(CODE[11]), 
		 -> STR_9(CODE[16]), main@event(BANK3[3]), 


Critical Paths under _main in COMMON

    _main->___lwdiv
    _main->_eeprom_at24c04_str_write
    _view_log->_clcd_putch
    _read_event->___bmul
    _read_event->_eeprom_at24c04_random_read
    _set_time->_clcd_putch
    _login_menu->_clcd_putch
    _login->_clcd_putch
    _log_event->_eeprom_at24c04_str_write
    _init_uart->___lldiv
    _init_i2c->___lldiv
    _init_ds1307->_read_ds1307
    _write_ds1307->_i2c_write
    _init_clcd->_init_display_controller
    _init_display_controller->_clcd_write
    _download_log->___bmul
    _download_log->_eeprom_at24c04_random_read
    _puts->_putchar
    _eeprom_at24c04_random_read->_i2c_read
    _display_dash_board->_clcd_putch
    _get_time->_read_ds1307
    _read_ds1307->_i2c_read
    _display_time->_clcd_putch
    _clear_log->_eeprom_at24c04_str_write
    _change_password->_clcd_putch
    _change_password->_eeprom_at24c04_str_write
    _eeprom_at24c04_str_write->_eeprom_at24c04_byte_write
    _eeprom_at24c04_byte_write->_i2c_write
    _clear_screen->_clcd_write
    _clcd_putch->___awmod
    _clcd_print->_clcd_write
    ___lwdiv->_read_adc

Critical Paths under _isr in COMMON

    None.

Critical Paths under _main in BANK0

    _main->_login_menu
    _view_log->_clcd_putch
    _set_time->_clcd_putch
    _login_menu->_clcd_putch
    _login->_clcd_putch
    _log_car_event->___awdiv
    _log_event->_eeprom_at24c04_str_write
    _init_config->_init_i2c
    _init_config->_init_uart
    _init_uart->___lldiv
    _init_i2c->___lldiv
    _display_dash_board->_clcd_putch
    _display_time->_clcd_putch
    _clear_log->_eeprom_at24c04_str_write
    _change_password->_clcd_putch
    _clcd_putch->___awdiv

Critical Paths under _isr in BANK0

    None.

Critical Paths under _main in BANK1

    None.

Critical Paths under _isr in BANK1

    None.

Critical Paths under _main in BANK3

    None.

Critical Paths under _isr in BANK3

    None.

Critical Paths under _main in BANK2

    None.

Critical Paths under _isr in BANK2

    None.

Call Graph Tables:

 ---------------------------------------------------------------------------------
 (Depth) Function   	        Calls       Base Space   Used Autos Params    Refs
 ---------------------------------------------------------------------------------
 (0) _main                                                39    39      0  130882
                                             21 BANK0      4     4      0
                                              0 BANK3     33    33      0
                            ___lwdiv
                    _change_password
                         _clcd_print
                         _clcd_write
                          _clear_log
                       _clear_screen
                 _display_dash_board
                       _download_log
           _eeprom_at24c04_str_write
                        _init_config
                      _log_car_event
                              _login
                         _login_menu
                           _read_adc
                _read_digital_keypad
                           _set_time
                             _strcpy
                           _view_log
 ---------------------------------------------------------------------------------
 (1) _view_log                                             1     1      0   14496
                                              5 BANK0      1     1      0
                         _clcd_print
                         _clcd_putch
                       _clear_screen
                         _read_event
 ---------------------------------------------------------------------------------
 (2) _read_event                                           3     3      0    1161
                                              6 COMMON     3     3      0
                             ___bmul
         _eeprom_at24c04_random_read
 ---------------------------------------------------------------------------------
 (2) _strcpy                                               5     3      2     487
                                              2 COMMON     5     3      2
 ---------------------------------------------------------------------------------
 (1) _set_time                                             5     5      0   20275
                                              5 BANK0      4     4      0
                         _clcd_print
                         _clcd_putch
                       _clear_screen
                       _display_time
                           _get_time
                       _write_ds1307
 ---------------------------------------------------------------------------------
 (1) _read_digital_keypad                                  2     2      0      31
                                              2 COMMON     2     2      0
 ---------------------------------------------------------------------------------
 (1) _read_adc                                             4     2      2      34
                                              2 COMMON     4     2      2
 ---------------------------------------------------------------------------------
 (1) _login_menu                                          16    15      1   13626
                                              5 BANK0     16    15      1
                         _clcd_print
                         _clcd_putch
                       _clear_screen
 ---------------------------------------------------------------------------------
 (1) _login                                               15    14      1   18134
                                              5 BANK0     15    14      1
                            ___awdiv
                            ___awmod
                         _clcd_print
                         _clcd_putch
                         _clcd_write
                       _clear_screen
         _eeprom_at24c04_random_read
                            _strncmp
 ---------------------------------------------------------------------------------
 (2) _strncmp                                              6     3      3     408
                                              2 COMMON     6     3      3
 ---------------------------------------------------------------------------------
 (1) _log_car_event                                        4     3      1    4870
                                              4 BANK0      4     3      1
                            ___awdiv
                            ___awmod
                           _get_time
                          _log_event
                            _strncpy
 ---------------------------------------------------------------------------------
 (2) _strncpy                                              9     5      4     780
                                              2 COMMON     7     3      4
                                              0 BANK0      2     2      0
 ---------------------------------------------------------------------------------
 (2) _log_event                                            2     2      0    1265
                                              1 BANK0      2     2      0
                             ___bmul
           _eeprom_at24c04_str_write
 ---------------------------------------------------------------------------------
 (1) _init_config                                          0     0      0    3808
                           _init_adc
                          _init_clcd
                _init_digital_keypad
                        _init_ds1307
                           _init_i2c
                        _init_timer2
                          _init_uart
 ---------------------------------------------------------------------------------
 (2) _init_uart                                            8     4      4     722
                                              6 BANK0      8     4      4
                            ___lldiv
 ---------------------------------------------------------------------------------
 (2) _init_timer2                                          0     0      0       0
 ---------------------------------------------------------------------------------
 (2) _init_i2c                                             8     4      4     722
                                              6 BANK0      8     4      4
                            ___lldiv
 ---------------------------------------------------------------------------------
 (3) ___lldiv                                             14     6      8     601
                                              2 COMMON     8     0      8
                                              0 BANK0      6     6      0
 ---------------------------------------------------------------------------------
 (2) _init_ds1307                                          1     1      0     682
                                              6 COMMON     1     1      0
                        _read_ds1307
                       _write_ds1307
 ---------------------------------------------------------------------------------
 (2) _write_ds1307                                         2     1      1     453
                                              3 COMMON     2     1      1
                          _i2c_start
                           _i2c_stop
                          _i2c_write
 ---------------------------------------------------------------------------------
 (2) _init_digital_keypad                                  0     0      0       0
 ---------------------------------------------------------------------------------
 (2) _init_clcd                                            0     0      0    1682
            _init_display_controller
 ---------------------------------------------------------------------------------
 (3) _init_display_controller                              2     2      0    1682
                                              6 COMMON     2     2      0
                         _clcd_write
 ---------------------------------------------------------------------------------
 (2) _init_adc                                             0     0      0       0
 ---------------------------------------------------------------------------------
 (1) _download_log                                         2     2      0    1462
                                              6 COMMON     2     2      0
                             ___bmul
         _eeprom_at24c04_random_read
                               _puts
 ---------------------------------------------------------------------------------
 (2) _puts                                                 2     0      2     366
                                              3 COMMON     2     0      2
                            _putchar
 ---------------------------------------------------------------------------------
 (3) _putchar                                              1     1      0      31
                                              2 COMMON     1     1      0
 ---------------------------------------------------------------------------------
 (3) _eeprom_at24c04_random_read                           2     2      0     164
                                              4 COMMON     2     2      0
                           _i2c_read
                      _i2c_rep_start
                          _i2c_start
                           _i2c_stop
                          _i2c_write
 ---------------------------------------------------------------------------------
 (1) _display_dash_board                                   4     3      1   20317
                                              5 BANK0      4     3      1
                            ___awdiv
                            ___awmod
                         _clcd_print
                         _clcd_putch
                       _display_time
                           _get_time
                             _strcmp
 ---------------------------------------------------------------------------------
 (3) _strcmp                                               6     4      2     259
                                              2 COMMON     6     4      2
 ---------------------------------------------------------------------------------
 (2) _get_time                                             1     1      0     161
                                              6 COMMON     1     1      0
                        _read_ds1307
 ---------------------------------------------------------------------------------
 (3) _read_ds1307                                          2     2      0     161
                                              4 COMMON     2     2      0
                           _i2c_read
                      _i2c_rep_start
                          _i2c_start
                           _i2c_stop
                          _i2c_write
 ---------------------------------------------------------------------------------
 (4) _i2c_rep_start                                        0     0      0       0
                          _i2c_start
                           _i2c_stop
 ---------------------------------------------------------------------------------
 (4) _i2c_read                                             2     2      0      65
                                              2 COMMON     2     2      0
                  _i2c_wait_for_idle
 ---------------------------------------------------------------------------------
 (2) _display_time                                         0     0      0    6064
                         _clcd_putch
 ---------------------------------------------------------------------------------
 (2) ___awmod                                              7     3      4     973
                                              2 COMMON     7     3      4
 ---------------------------------------------------------------------------------
 (2) ___awdiv                                              9     5      4     985
                                              2 COMMON     5     1      4
                                              0 BANK0      4     4      0
 ---------------------------------------------------------------------------------
 (1) _clear_log                                            2     2      0    6823
                                              1 BANK0      2     2      0
                             ___bmul
                         _clcd_print
           _eeprom_at24c04_str_write
 ---------------------------------------------------------------------------------
 (3) ___bmul                                               4     3      1     586
                                              2 COMMON     4     3      1
 ---------------------------------------------------------------------------------
 (1) _change_password                                      8     8      0   14338
                                              5 BANK0      8     8      0
                         _clcd_print
                         _clcd_putch
                       _clear_screen
           _eeprom_at24c04_str_write
 ---------------------------------------------------------------------------------
 (3) _eeprom_at24c04_str_write                             4     2      2     642
                                              7 COMMON     3     1      2
                                              0 BANK0      1     1      0
          _eeprom_at24c04_byte_write
 ---------------------------------------------------------------------------------
 (4) _eeprom_at24c04_byte_write                            4     3      1     183
                                              3 COMMON     4     3      1
                          _i2c_start
                           _i2c_stop
                          _i2c_write
 ---------------------------------------------------------------------------------
 (4) _i2c_write                                            1     1      0      31
                                              2 COMMON     1     1      0
                  _i2c_wait_for_idle
 ---------------------------------------------------------------------------------
 (4) _i2c_stop                                             0     0      0       0
                  _i2c_wait_for_idle
 ---------------------------------------------------------------------------------
 (4) _i2c_start                                            0     0      0       0
                  _i2c_wait_for_idle
 ---------------------------------------------------------------------------------
 (5) _i2c_wait_for_idle                                    0     0      0       0
 ---------------------------------------------------------------------------------
 (2) _clear_screen                                         2     2      0    1682
                                              6 COMMON     2     2      0
                         _clcd_write
 ---------------------------------------------------------------------------------
 (2) _clcd_putch                                           2     1      1    6064
                                              9 COMMON     1     0      1
                                              4 BANK0      1     1      0
                            ___awdiv (ARG)
                            ___awmod (ARG)
                         _clcd_write
 ---------------------------------------------------------------------------------
 (2) _clcd_print                                           3     0      3    5558
                                              6 COMMON     3     0      3
                         _clcd_write
 ---------------------------------------------------------------------------------
 (3) _clcd_write                                           4     3      1    1682
                                              2 COMMON     4     3      1
 ---------------------------------------------------------------------------------
 (1) ___lwdiv                                              8     4      4     421
                                              6 COMMON     4     0      4
                                              0 BANK0      4     4      0
                           _read_adc (ARG)
 ---------------------------------------------------------------------------------
 Estimated maximum stack depth 5
 ---------------------------------------------------------------------------------
 (Depth) Function   	        Calls       Base Space   Used Autos Params    Refs
 ---------------------------------------------------------------------------------
 (7) _isr                                                  2     2      0       0
                                              0 COMMON     2     2      0
 ---------------------------------------------------------------------------------
 Estimated maximum stack depth 7
 ---------------------------------------------------------------------------------

 Call Graph Graphs:

 _main (ROOT)
   ___lwdiv
     _read_adc (ARG)
   _change_password
     _clcd_print
       _clcd_write
     _clcd_putch
       ___awdiv (ARG)
       ___awmod (ARG)
       _clcd_write (ARG)
     _clear_screen
       _clcd_write
     _eeprom_at24c04_str_write
       _eeprom_at24c04_byte_write
         _i2c_start
           _i2c_wait_for_idle
         _i2c_stop
           _i2c_wait_for_idle
         _i2c_write
           _i2c_wait_for_idle
   _clcd_print
   _clcd_write
   _clear_log
     ___bmul
     _clcd_print
     _eeprom_at24c04_str_write
   _clear_screen
   _display_dash_board
     ___awdiv
     ___awmod
     _clcd_print
     _clcd_putch
     _display_time
       _clcd_putch
     _get_time
       _read_ds1307
         _i2c_read
           _i2c_wait_for_idle
         _i2c_rep_start
           _i2c_start
           _i2c_stop
         _i2c_start
         _i2c_stop
         _i2c_write
     _strcmp
   _download_log
     ___bmul
     _eeprom_at24c04_random_read
       _i2c_read
       _i2c_rep_start
       _i2c_start
       _i2c_stop
       _i2c_write
     _puts
       _putchar
   _eeprom_at24c04_str_write
   _init_config
     _init_adc
     _init_clcd
       _init_display_controller
         _clcd_write
     _init_digital_keypad
     _init_ds1307
       _read_ds1307
       _write_ds1307
         _i2c_start
         _i2c_stop
         _i2c_write
     _init_i2c
       ___lldiv
     _init_timer2
     _init_uart
       ___lldiv
   _log_car_event
     ___awdiv
     ___awmod
     _get_time
     _log_event
       ___bmul
       _eeprom_at24c04_str_write
     _strncpy
   _login
     ___awdiv
     ___awmod
     _clcd_print
     _clcd_putch
     _clcd_write
     _clear_screen
     _eeprom_at24c04_random_read
     _strncmp
   _login_menu
     _clcd_print
     _clcd_putch
     _clear_screen
   _read_adc
   _read_digital_keypad
   _set_time
     _clcd_print
     _clcd_putch
     _clear_screen
     _display_time
     _get_time
     _write_ds1307
   _strcpy
   _view_log
     _clcd_print
     _clcd_putch
     _clear_screen
     _read_event
       ___bmul
       _eeprom_at24c04_random_read

 _isr (ROOT)

 Address spaces:
Name               Size   Autos  Total    Cost      Usage
BANK3               60     21      31       9       51.0%
BITBANK3            60      0       0       8        0.0%
SFR3                 0      0       0       4        0.0%
BITSFR3              0      0       0       4        0.0%
BANK2               60      0       0      11        0.0%
BITBANK2            60      0       0      10        0.0%
SFR2                 0      0       0       5        0.0%
BITSFR2              0      0       0       5        0.0%
BANK1               50      0      48       7       90.0%
BITBANK1            50      0       0       6        0.0%
SFR1                 0      0       0       2        0.0%
BITSFR1              0      0       0       2        0.0%
BANK0               50     19      32       5       62.5%
BITBANK0            50      0       0       4        0.0%
SFR0                 0      0       0       1        0.0%
BITSFR0              0      0       0       1        0.0%
COMMON               E      A       C       1       85.7%
BITCOMMON            E      0       0       0        0.0%
CODE                 0      0       0       0        0.0%
DATA                 0      0      B7      12        0.0%
ABS                  0      0      B7       3        0.0%
NULL                 0      0       0       0        0.0%
STACK                0      0       0       2        0.0%
EEDATA             100      0       0       0        0.0%


Microchip Technology PIC Macro Assembler V2.41 build 20230208172133 
Symbol Table                                                                                   Wed Nov 15 00:48:51 2023

                                      pc 0002                           ___bmul@product 0074  
                         clcd_print@addr 0078                                       l20 0A82  
                                     l23 1518                                       l32 176B  
                                     l17 15D6                                       l26 1583  
                                     l50 153A                                       l53 1548  
                                     l70 155B                                       l47 14C0  
                                     l73 16E3                                       l76 15B6  
                                     _GO 00FA                             ___awdiv@sign 0021  
                                     fsr 0004                       login_menu@menu_pos 003E  
                                    l111 1525                                      l120 14E2  
                                    l105 17FF                                      l114 14D9  
                                    l202 00B1                                      l123 15F2  
                                    l108 1519                                      l124 15F5  
                                    l125 15F7                                      l117 1502  
                                    l128 14F7                                      l312 09DE  
                                    l209 01A5                                      l315 0A2B  
                                    l323 161C                                      l411 0435  
                                    l500 0853                                      l420 0405  
                                    l412 03F5                                      l405 03C1  
                                    l326 0B36                                      l422 0415  
                                    l319 06FF                                      l191 088D  
                                    l344 068E                                      l424 0425  
                                    l329 1536                                      l460 14B9  
                                    l364 0FFF                                      l453 0DC5  
                                    l382 08C8                                      l535 14EC  
                                    l439 0515                                      l367 0DD4  
                                    l375 0D19                                      l552 179B  
                                    l369 0E7B                                      l562 1508  
                                    l570 1667                                      l466 16B8  
                                    l491 170E                                      l563 150C  
                                    l564 150D                                      l388 0F3D  
                                    l396 0377                                      l494 168E  
                                    l822 0ADB                                      l399 03A2  
                                    l809 0C07                                      l682 1598  
                                    l692 0B9E                                      l928 0991  
                                    _GIE 005F                                      _RE1 0049  
                                    _RE2 004A                                      _PR2 0092  
                                    _PEN 048A                                      _SEN 0488  
                          ?_display_time 0070                            log_event@addr 0022  
                                    _log 00DD                                      _sec 0042  
                                    _isr 0C08                           clcd_putch@addr 0079  
                                    _pos 004E                                      fsr0 0004  
                         clcd_putch@data 0024                                      indf 0000  
                           ___awmod@sign 0078         __end_of_eeprom_at24c04_str_write 0854  
                     log_car_event@event 0027                       log_car_event@speed 0024  
                                   l1112 17CD                                     l1121 08F6  
                                   l1126 0906                                     l1118 1641  
                                   l1137 094B                                     l4001 17FC  
                  ??_read_digital_keypad 0072                                     l4003 14B4  
                                   l4011 176C                                     l4021 09DF  
                                   l4005 14E3                                     l4013 1770  
                                   l4101 0DD2                                     l4015 1526  
                                   l4031 0A1A                                     l4023 09FA  
                                   l4007 14E7                                     l4111 0DFD  
                                   l4103 0DDA                                     l4017 152D  
                                   l4201 0A93                                     l4033 0A26  
                                   l4025 0A06                                     l4041 17A8  
                                   l4009 14EB                                     l4121 0E2D  
                                   l4113 0E06                                     l4105 0DE2  
                                   l4211 0AAC                                     l4203 0A98  
                                   l4019 0992                                     l4035 0A2A  
                                   l4027 0A0A                                     l4043 17C1  
                                   l4051 15FB                                     l4131 0E61  
                                   l4123 0E3A                                     l4115 0E13  
                                   l4107 0DE6                                     l4213 0AB0  
                                   l4205 0A9E                                     l4221 0ACD  
                                   l4029 0A16                                     l4045 17C8  
                                   l4037 179D                                     l4301 06A2  
                                   l4141 1643                                     l4061 1612  
                                   l4053 15FB                                     l4133 0E65  
                                   l4125 0E3E                                     l4117 0E17  
                                   l4109 0DF0                                     l4151 0BA6  
                                   l4223 0AD2                                     l4215 0ABA  
                                   l4207 0AA1                                     l4039 179E  
                                   l4303 06C6                                     l4143 1651  
                                   l4055 15FF                                     l4311 051F  
                                   l4231 153E                                     l4135 0E72  
                                   l4127 0E4B                                     l4119 0E24  
                                   l4161 0BBA                                     l4153 0BAB  
                                   l4225 0AD7                                     l4217 0AC0  
                                   l4209 0AA8                                     l4305 06C9  
                                   l4145 1657                                     l4241 0860  
                                   l4057 1605                                     l4049 15F8  
                                   l4081 08CB                                     l4401 066D  
                                   l4313 0525                                     l4321 052F  
                                   l4137 0E73                                     l4129 0E54  
                                   l5201 0053                                     l4171 0BD0  
                                   l4163 0BBC                                     l4155 0BAD  
                                   l4147 0B9F                                     l4219 0AC7  
                                   l4307 06E4                                     l4139 1642  
                                   l4243 086F                                     l4235 0854  
                                   l4059 1606                                     l4091 0904  
                                   l4083 08D3                                     l4411 068B  
                                   l4403 066F                                     l4331 0550  
                                   l4323 0535                                     l4315 0528  
                                   l5211 0088                                     l5203 0065  
                                   l4501 088F                                     l4181 0BF3  
                                   l4173 0BD4                                     l4165 0BC2  
                                   l4157 0BB1                                     l4149 0BA2  
                                   l4245 0874                                     l4237 0856  
                                   l4085 08DF                                     l4405 0676  
                                   l4325 053B                                     l4333 0553  
                                   l4317 0529                                     l4309 0519  
                                   l4421 0F56                                     l4229 1537  
                                   l4261 1690                                     l5301 01CC  
                                   l5221 008F                                     l5213 008C  
                                   l5205 0066                                     l4511 08B9  
                                   l4503 089B                                     l4175 0BE5  
                                   l4167 0BC5                                     l4183 0BF9  
                                   l4159 0BB6                                     l4191 0A83  
                                   l4247 0879                                     l4239 085B  
                                   l4079 08CA                                     l4415 068D  
                                   l4407 067D                                     l4335 0559  
                                   l4327 0541                                     l4319 052A  
                                   l4431 0F70                                     l4423 0F5C  
                                   l4271 16A5                                     l4263 1695  
                                   l4095 0DC7                                     l5311 01F6  
                                   l5303 01D1                                     l5231 00D1  
                                   l5223 00A7                                     l5215 008D  
                                   l5207 0067                                     l4513 08BB  
                                   l4505 08A5                                     l4185 0BFE  
                                   l4177 0BEB                                     l4169 0BCC  
                                   l4193 0A84                                     l4521 0E86  
                                   l4249 087E                                     l4089 08EE  
                                   l4361 05AB                                     l4353 0577  
                                   l4409 0684                                     l4337 055F  
                                   l4345 056F                                     l4329 054A  
                                   l4433 0F74                                     l4425 0F5D  
                                   l4273 16AA                                     l4281 16AC  
                                   l4097 0DC7                                     l5401 030B  
                                   l5321 0216                                     l5313 01F9  
                                   l5241 010B                                     l5233 00E7  
                                   l5225 00BA                                     l5217 008E  
                                   l5209 0070                                     l4515 08BD  
                                   l4507 08AB                                     l4187 0C03  
                                   l4179 0BEC                                     l4195 0A88  
                                   l4531 0EB5                                     l4523 0E99  
                                   l5171 090A                                     l4371 05BB  
                                   l4355 0584                                     l4347 0575  
                                   l4339 0565                                     l4451 0FC3  
                                   l4443 0F88                                     l4435 0F7A  
                                   l4427 0F62                                     l4419 0F41  
                                   l4283 16B5                                     l4611 036D  
                                   l4291 1621                                     l4099 0DCC  
                                   l5403 030F                                     l5331 0232  
                                   l5323 0219                                     l5315 01FB  
                                   l5307 01D6                                     l5243 010F  
                                   l5235 00ED                                     l5227 00BE  
                                   l5219 008E                                     l4509 08B3  
                                   l4197 0A8D                                     l4541 0ED1  
                                   l4533 0EB9                                     l4525 0E9D  
                                   l4517 0E7C                                     l3901 159A  
                                   l5181 0935                                     l5173 090D  
                                   l4381 05DE                                     l4373 05BE  
                                   l4357 058C                                     l4453 0FCB  
                                   l4445 0F90                                     l4437 0F80  
                                   l4429 0F6A                                     l4285 16B7  
                                   l4269 169A                                     l4701 0456  
                                   l4621 0383                                     l4613 0372  
                                   l4293 1625                                     l4461 0C76  
                                   l5341 025A                                     l5325 021E  
                                   l5317 0208                                     l5309 01F1  
                                   l5245 0115                                     l5253 013C  
                                   l5237 00EF                                     l5229 00CC  
                                   l3831 14D6                                     l3911 0845  
                                   l3903 0828                                     l4199 0A8F  
                                   l4551 0EE8                                     l4543 0EDE  
                                   l4535 0EC2                                     l4527 0EAA  
                                   l4519 0E85                                     l5183 0939  
                                   l5175 0913                                     l5191 0AF2  
                                   l4391 0636                                     l4383 05EA  
                                   l4375 05C0                                     l4367 05AD  
                                   l4359 0599                                     l4455 0FF4  
                                   l4447 0F98                                     l4439 0F85  
                                   l4711 0471                                     l4703 045C  
                                   l4631 03A0                                     l4623 038B  
                                   l4615 0375                                     l4295 162B  
                                   l4471 0C94                                     l4463 0C7B  
                                   l5351 027F                                     l5343 025F  
                                   l5327 0224                                     l5319 020F  
                                   l5407 0311                                     l5271 017B  
                                   l5255 0142                                     l5263 0165  
                                   l5247 0129                                     l5239 00F5  
                                   l4801 0979                                     l3825 1519  
                                   l3841 14DA                                     l3833 14EE  
                                   l3905 0829                                     l4297 0692  
                                   l3921 16F6                                     l3913 16E5  
                                   l4561 0F04                                     l4553 0EF1  
                                   l4545 0EE2                                     l4537 0EC6  
                                   l4529 0EAC                                     l5185 093D  
                                   l5193 0B30                                     l4393 064C  
                                   l4385 061E                                     l4377 05C5  
                                   l4369 05B5                                     l4457 0FFC  
                                   l4449 0FAD                                     l4721 048F  
                                   l4713 047B                                     l4705 0466  
                                   l4641 03BD                                     l4633 03A8  
                                   l4625 0390                                     l4617 0376  
                                   l4609 0368                                     l4289 161E  
                                   l4481 0CC1                                     l4473 0C9A  
                                   l4465 0C80                                     l5361 029C  
                                   l5353 0284                                     l5345 0270  
                                   l5337 0236                                     l5329 022B  
                                   l5409 0335                                     l5281 019F  
                                   l5273 0186                                     l5265 016B  
                                   l5257 0144                                     l5249 0131  
                                   l4803 097F                                     l3851 15CA  
                                   l3827 151F                                     l3843 14DF  
                                   l3835 14F3                                     l3907 0839  
                                   l4731 0D30                                     l4723 0D1D  
                                   l4299 069D                                     l3923 16FB  
                                   l3915 16E5                                     l4571 0F28  
                                   l4563 0F11                                     l4555 0EF5  
                                   l4547 0EE4                                     l4539 0EC8  
                                   l5179 092E                                     l5195 0B31  
                                   l5187 0ADF                                     l4395 065A  
                                   l4379 05D3                                     l4387 0626  
                                   l4715 0480                                     l4707 046B  
                                   l4651 03DC                                     l4643 03C7  
                                   l4635 03AE                                     l4627 0396  
                                   l4619 0378                                     l4491 0CF1  
                                   l4483 0CCB                                     l4475 0CA5  
                                   l4467 0C83                                     l5371 02B5  
                                   l5363 02A0                                     l5355 028C  
                                   l5347 0276                                     l5339 0255  
                                   l5283 01A1                                     l5275 018D  
                                   l5267 0171                                     l5259 0158  
                                   l4805 0980                                     l3845 15B8  
                                   l3829 14D1                                     l3837 14F7  
                                   l3909 083F                                     l4741 0D38  
                                   l4733 0D34                                     l4725 0D1F  
                                   l3941 158E                                     l3861 15E9  
                                   l3853 14F8                                     l3925 1701  
                                   l3917 16EA                                     l3933 1504  
                                   l4573 0F31                                     l4565 0F1A  
                                   l4557 0EFE                                     l4549 0EE6  
                                   l5189 0AE4                                     l4397 065F  
                                   l4389 062B                                     l4709 046B  
                                   l4717 0480                                     l4661 03EE  
                                   l4653 03DD                                     l4645 03CD  
                                   l4637 03B3                                     l4629 039C  
                                   l4581 0342                                     l4493 0CFB  
                                   l4485 0CD5                                     l4477 0CAF  
                                   l4469 0C88                                     l5373 02C5  
                                   l5365 02A6                                     l5357 0294  
                                   l5349 027B                                     l5293 01B9  
                                   l5277 0194                                     l5269 0176  
                                   l5285 01A5                                     l5197 004A  
                                   l4807 0987                                     l3847 15C2  
                                   l3871 1685                                     l4751 0D4E  
                                   l4743 0D3A                                     l4735 0D35  
                                   l4727 0D20                                     l3943 1590  
                                   l3935 1585                                     l3863 15EE  
                                   l3855 15D8                                     l3927 1708  
                                   l3919 16F0                                     l4567 0F1E  
                                   l4559 0F02                                     l4575 0F35  
                                   l3951 0B49                                     l4399 066A  
                                   l4719 0485                                     l4671 0405  
                                   l4655 03E3                                     l4647 03D2  
                                   l4639 03B9                                     l4591 035D  
                                   l4583 0343                                     l4495 0D05  
                                   l4487 0CDD                                     l4479 0CB9  
                                   l5375 02C9                                     l5367 02A8  
                                   l5359 0297                                     l5295 01BD  
                                   l5287 01AD                                     l5279 019B  
                                   l5199 004F                                     l4809 098D  
                                   l3849 15C4                                     l4761 0D68  
                                   l4753 0D53                                     l4737 0D36  
                                   l4729 0D25                                     l4745 0D3B  
                                   l3945 1597                                     l3937 1586  
                                   l3865 15F6                                     l3857 15DD  
                                   l3929 170D                                     l4569 0F1F  
                                   l3881 0A50                                     l3873 0A2C  
                                   l3961 0B78                                     l3953 0B4C  
                                   l4681 0421                                     l4673 040B  
                                   l4657 03E9                                     l4649 03D8  
                                   l4585 0349                                     l4577 0340  
                                   l4497 0D0F                                     l4489 0CE7  
                                   l5393 02F4                                     l5385 02E3  
                                   l5377 02CF                                     l5369 02AE  
                                   l5297 01C2                                     l5289 01B3  
                                   l4771 0D89                                     l4763 0D6E  
                                   l4755 0D5E                                     l4747 0D41  
                                   l4739 0D37                                     l3939 158A  
                                   l4499 088E                                     l3859 15E5  
                                   l3891 0A76                                     l3883 0A57  
                                   l3875 0A34                                     l3963 0B86  
                                   l3955 0B59                                     l4691 043B  
                                   l4683 0425                                     l4675 0411  
                                   l4667 03FB                                     l4587 0351  
                                   l4579 0340                                     l5395 02FC  
                                   l5387 02EB                                     l5379 02DA  
                                   l5555 01E0                                     l5299 01C7  
                                   l3981 173D                                     l3893 1572  
                                   l3869 1669                                     l4781 0DA9  
                                   l4773 0D8F                                     l4765 0D74  
                                   l4757 0D61                                     l4749 0D4B  
                                   l3885 0A5A                                     l3877 0A3B  
                                   l3973 150E                                     l3965 0B87  
                                   l3957 0B5D                                     l3949 0B37  
                                   l4693 0441                                     l4685 042B  
                                   l4677 0415                                     l4669 0401  
                                   l4589 0356                                     l5397 0304  
                                   l5557 024D                                     l4791 0956  
                                   l3983 1745                                     l4783 0DAE  
                                   l4775 0D95                                     l4767 0D7D  
                                   l4759 0D62                                     l3895 16BA  
                                   l3887 0A61                                     l3879 0A4B  
                                   l3975 1511                                     l3991 1549  
                                   l3967 0B90                                     l3959 0B66  
                                   l4695 044B                                     l4687 0431  
                                   l4679 041B                                     l5559 031B  
                                   l5399 0306                                     l4793 0959  
                                   l3985 1755                                     l4785 0DB8  
                                   l4777 0D9E                                     l4769 0D83  
                                   l3897 16E2                                     l3889 0A6D  
                                   l3977 1512                                     l3993 1550  
                                   l3969 0B96                                     l4697 0450  
                                   l4689 0435                                     _ADFM 04FF  
                                   l4795 0960                                     l4787 094C  
                                   l3987 175B                                     l4779 0DA4  
                                   l3979 1513                                     l3995 1553  
                                   l4699 0450                                     ?_isr 0070  
                                   l4797 0964                                     l4789 0950  
                                   l3989 14BA                                     l3997 17CE  
                                   l4799 0968                                     l3999 17D1  
                                   _ADON 00F8                                     STR_1 081F  
                                   STR_2 0822                                     STR_3 0813  
                                   STR_4 0816                                     STR_5 0819  
                                   STR_6 081C                                     STR_7 0803  
                                   STR_8 0810                                     STR_9 0769  
                                   _CREN 00C4                                     u4000 1641  
                                   u4001 1640                                     u4010 06C6  
                                   u4011 06C5                                     u4100 05BB  
                                   u4020 051F                                     u4101 05BA  
                                   u4021 051E                                     u4110 0625  
                                   u4030 0535                                     u4111 0624  
                                   u4031 0534                                     u3400 151F  
                                   u5000 0934                                     u4120 068B  
                                   u4040 053B                                     u4200 0FCB  
                                   u3401 151E                                     u5001 0933  
                                   u4121 068A                                     u4041 053A  
                                   u4201 0FCA                                     u3410 1525  
                                   u5010 094B                                     u4050 0559  
                                   u4130 0F49                                     u4210 0C7B  
                                   u3411 1524                                     u5011 094A  
                                   u4051 0558                                     u4211 0C7A  
                                   u3420 15BF                                     u4060 055F  
                                   u4140 0F5C                                     u4300 038B  
                                   u4220 0C88                                     u5100 016B  
                                   u5020 007A                                     u3421 15BB  
                                   u4061 055E                                     u4141 0F5B  
                                   u4301 038A                                     u4221 0C87  
                                   u5101 016A                                     u4230 08B3  
                                   u3510 0B5D                                     u4070 0575  
                                   u4150 0F6A                                     u4310 0390  
                                   u5110 0171                                     u5030 0099  
                                   u4231 08B2                                     u3511 0B5C  
                                   u4071 0574                                     u4151 0F69  
                                   u4311 038F                                     u5111 0170  
                                   u4240 08B9                                     u3440 15EE  
                                   u4080 0599                                     u4160 0F70  
                                   u4400 03D2                                     u4320 0396  
                                   u5200 02B5                                     u5120 0176  
                                   u5040 00CC                                     u4241 08B8  
                                   u3441 15ED                                     u3505 0B4E  
                                   u4081 0598                                     u4161 0F6F  
                                   u4401 03D1                                     u4321 0395  
                                   u5201 02B4                                     u5121 0175  
                                   u5041 00CB                                     u3434 15C2  
                                   u3450 0853                                     u4250 0F3D  
                                   u3530 0B78                                     u4090 05AB  
                                   u4170 0F80                                     u4410 03D8  
                                   u4330 039C                                     u5210 02E2  
                                   u5130 01AD                                     u5050 00D1  
                                   u3451 0852                                     u4251 0F3C  
                                   u3531 0B77                                     u4091 05AA  
                                   u4171 0F7F                                     u4411 03D7  
                                   u4331 039B                                     u5211 02E1  
                                   u5131 01AC                                     u5051 00D0  
                                   u3620 17C1                                     u3460 150C  
                                   u3700 0904                                     u4180 0F85  
                                   u4500 0421                                     u4420 03E3  
                                   u4340 03A8                                     u4260 0349  
                                   u5220 02F3                                     u5140 01B3  
                                   u5060 00ED                                     u3605 0A0D  
                                   u3621 17C0                                     u3461 150B  
                                   u3525 0B5F                                     u3701 0903  
                                   u4085 0595                                     u4181 0F84  
                                   u4501 0420                                     u4421 03E2  
                                   u4341 03A7                                     u4261 0348  
                                   u5221 02F2                                     u5141 01B2  
                                   u5061 00EC                                     u3470 158A  
                                   u3630 17C8                                     u3550 0B96  
                                   u4190 0F90                                     u4510 042B  
                                   u4430 03E9                                     u4350 03AE  
                                   u4270 034F                                     u3710 0DCC  
                                   u5230 0304                                     u5150 01B8  
                                   u5070 00F5                                     u3471 1589  
                                   u3615 0A1D                                     u3631 17C7  
                                   u3551 0B95                                     u3535 0B74  
                                   u4191 0F8F                                     u4511 042A  
                                   u4431 03E8                                     u4351 03AD  
                                   u4271 034D                                     u3711 0DCB  
                                   u5231 0303                                     u5151 01B7  
                                   u5071 00F4                                     u3560 176B  
                                   u3480 1597                                     u3800 0BD4  
                                   u3640 1605                                     u4600 047B  
                                   u4520 0431                                     u4440 03F4  
                                   u4360 03B3                                     u4280 0350  
                                   u3720 0DD2                                     u5160 025A  
                                   u5080 0115                                     u3561 176A  
                                   u3481 1596                                     u3801 0BD3  
                                   u3545 0B88                                     u3641 1604  
                                   u4601 047A                                     u4521 0430  
                                   u4441 03F3                                     u4361 03B2  
                                   u3721 0DD1                                     u5161 0259  
                                   u5081 0114                                     u3490 0B49  
                                   u3570 17DF                                     u4610 0485  
                                   u4530 043B                                     u4450 03FB  
                                   u4370 03B9                                     u4290 035D  
                                   u3730 0DDA                                     u5170 0276  
                                   u5090 0142                                     u5307 0A30  
                                   u3491 0B48                                     u4611 0484  
                                   u4531 043A                                     u4451 03FA  
                                   u4371 03B8                                     u4291 035C  
                                   u3731 0DD9                                     u5171 0275  
                                   u5091 0141                                     _PEIE 005E  
                                   u4700 0956                                     u4620 0D25  
                                   u3820 0BE5                                     u3900 0AB0  
                                   u3580 177E                                     u4540 0441  
                                   u4460 0401                                     u4380 03C7  
                                   u3740 0DE2                                     u5180 0294  
                                   u4701 0955                                     u4621 0D24  
                                   u3821 0BE4                                     u3901 0AAF  
                                   u5317 0A3F                                     u4541 0440  
                                   u4461 0400                                     u4381 03C6  
                                   u3741 0DE1                                     u5181 0293  
                                   u4630 0D41                                     u3910 0ABA  
                                   u3750 1667                                     u4550 044B  
                                   u4470 040B                                     u4390 03CD  
                                   u5190 02A6                                     u4631 0D40  
                                   u3815 0BD5                                     u3911 0AB9  
                                   u3751 1666                                     u5327 0A4D  
                                   u3575 17DA                                     u4551 044A  
                                   u4471 040A                                     u4391 03CC  
                                   u5191 02A5                                     u5247 0198  
                                   u4720 0968                                     u4640 0D68  
                                   u3840 0BF9                                     u3760 0BA6  
                                   u3680 08D3                                     u4560 0456  
                                   u4480 0411                                     u4721 0967  
                                   u4641 0D67                                     u3841 0BF8  
                                   u3825 0BE1                                     u3761 0BA5  
                                   u5337 0A63                                     u3585 1779  
                                   u3681 08D2                                     u4561 0455  
                                   u4481 0410                                     u5257 0213  
                                   u4650 0D6E                                     u3850 0BFE  
                                   u3770 0BB1                                     u3930 0ACD  
                                   u3690 08DF                                     u4570 045C  
                                   u4490 041B                                     u4715 095A  
                                   u4651 0D6D                                     u3851 0BFD  
                                   u3835 0BED                                     u3771 0BB0  
                                   u3931 0ACC                                     u3915 0AB6  
                                   u3595 09FD                                     u5347 0A71  
                                   u3691 08DE                                     u4571 045B  
                                   u4491 041A                                     u5267 022F  
                                   u4740 0979                                     u4660 0D89  
                                   u3780 0BC2                                     u3940 0AD2  
                                   u3860 0A88                                     u4580 0466  
                                   _RCEN 048B                                     _RCIF 0065  
                                   u4741 0978                                     u4661 0D88  
                                   u3781 0BC1                                     u3941 0AD1  
                                   u3925 0AC1                                     u3861 0A87  
                                   u5357 0A7F                                     u5277 05D0  
                                   u4581 0465                                     u4670 0D8F  
                                   u3870 0A93                                     u3950 153E  
                                   u4590 0471                                     u4735 0969  
                                   u5367 1689                                     u4671 0D8E  
                                   u3871 0A92                                     u5287 0654  
                                   u3951 153D                                     u4591 0470  
                                   u4760 098D                                     u4680 0DA9  
                                   u3880 0A9E                                     u3960 1695  
                                   u4761 098C                                     u4745 0975  
                                   u5377 1531                                     u4681 0DA8  
                                   u3881 0A9D                                     u5297 0681  
                                   u3961 1694                                     u4690 0DAE  
                                   u3970 16A5                                     u4755 0981  
                                   u5387 15C7                                     u4691 0DAD  
                                   u3795 0BC6                                     u3971 16A4  
                                   u3980 16AA                                     u5397 15D1  
                                   u3981 16A9                                     u3990 16B5  
                                   u3895 0AA2                                     u3991 16B4  
                                   u4990 092D                                     u4991 092C  
                                   _SPEN 00C7                                     _TXIF 0064  
                                   _R_nW 04A2                                     _data 00D2  
                                   _flag 0051               __end_of_display_dash_board 0700  
                                   _main 004A                                     _time 0043  
                                   btemp 007E                                     _puts 1642  
                                   start 000C                        ___bmul@multiplier 0075  
                         clcd_write@byte 0075                           clcd_write@mode 0072  
                          _i2c_rep_start 14F8                                    ??_isr 0070  
                           ?_init_ds1307 0070                                    ?_main 0070  
                           ?_read_ds1307 0070                                    _ACKEN 048C  
                                  _ACKDT 048D                           ??_display_time 007A  
                        __end_of___awdiv 0C08                                    STR_10 07CA  
                                  STR_11 0808                                    STR_12 0737  
                                  STR_20 07DF                                    STR_13 080D  
                                  STR_21 07A6                                    STR_30 07D5  
                                  STR_14 0788                                    STR_22 07E9  
                                  STR_31 0779                                    STR_15 0748  
                                  STR_23 07BF                                    STR_24 07FB  
                                  STR_16 0797                                    STR_32 0715  
                                  STR_25 0737                                    STR_17 0759  
                                  STR_18 076A                                    STR_26 07B3  
                                  STR_27 0700                                    STR_19 07F2  
                                  STR_28 0713                          __end_of___awmod 0ADC  
                                  STR_29 0726                                    ?_puts 0073  
                        __end_of___lldiv 0B9F                              i2c_read@ack 0072  
                        ___awdiv@divisor 0072                          __end_of___lwdiv 0992  
                                  i1l520 0C25                                    i1l522 0C5D  
                                  i1l524 0C6C                             ?_init_config 0070  
                        ___awdiv@counter 0020                                    _RCREG 001A  
                                  _SPBRG 0099                                    _PORTB 0006  
                                  _PORTD 0008                                    _SSPM3 00A3  
                                  _TRISB 0086                                    _TRISD 0088  
                                  _SSPEN 00A5                                    _TXREG 0019  
                           ?_init_timer2 0070                                    _nDONE 00FA  
                   __end_of_clear_screen 1537                                    _c_log 00C3  
                                  _c_pos 0041                                    _d_pos 007B  
                                  _blink 004F                                    _login 0516  
                                  main@j 01A4                          _change_password 0D1A  
                                  pclath 000A                     login_menu@reset_flag 0025  
     eeprom_at24c04_str_write@memory_loc 0020                                    puts@s 0073  
                        __end_of_putchar 150E                                    status 0003  
                                  wtemp0 007E                          __end_of_strncmp 0907  
                        __end_of_strncpy 094C  eeprom_at24c04_random_read@received_data 0075  
                       init_ds1307@dummy 0076                          __initialization 000F  
                         ?_i2c_rep_start 0070                             __end_of_main 033D  
                           __end_of_puts 1668                           login@npassword 002D  
                       __end_of_i2c_read 15F8                         __end_of_i2c_stop 14E3  
                          ?_download_log 0070                                   ??_main 0035  
                                 ??_puts 0075                           login@spassword 0029  
                                 _ADRESH 001E                                   ?_login 0025  
                                 _ADRESL 009E                         ___awdiv@dividend 0074  
                           i2c_read@data 0073                                   i1l3751 0C40  
                                 i1l3761 0C67                                   i1l3753 0C4A  
                                 i1l3745 0C08                                   i1l3755 0C54  
                                 i1l3763 0C69                                   i1l3747 0C0E  
                                 i1l3757 0C5B                                   i1l3749 0C1B  
                                 i1l3759 0C62                                   u330_20 0C0E  
                                 u330_21 0C0D                                   u331_20 0C1B  
                                 u331_21 0C1A                                   u332_20 0C23  
                                 u332_21 0C21                                   u333_20 0C24  
                                 u334_20 0C40                                   u334_21 0C3F  
                                 u335_20 0C48                                   u335_21 0C46  
                                 u336_20 0C49                                   u337_20 0C5B  
                                 u337_21 0C5A                                   u338_20 0C62  
                                 u338_21 0C61                             _write_ds1307 1599  
                                 u339_20 0C67                                   u339_21 0C66  
                                 _TMR2IE 0461                                   _TMR2IF 0061  
                                 _TMR2ON 0092              ?_eeprom_at24c04_random_read 0070  
                                 _SSPADD 0093                                   _TRISE1 0449  
                                 _TRISE2 044A                                   _SSPBUF 0013  
                          login_menu@key 0034              __end_of_init_digital_keypad 14BA  
              ?_eeprom_at24c04_str_write 0077                         __end_of_get_time 0A2C  
                                 ___bmul 1584                  _init_display_controller 0A2C  
                                 _d_data 01B1                                ??___awdiv 0076  
                              ??___awmod 0076                                ??___lldiv 0020  
                              ??___lwdiv 0020                         __end_of_init_i2c 1800  
                       __end_of_init_adc 14C1                         __end_of_read_adc 1549  
                         ??_download_log 0076                         ___awdiv@quotient 0022  
                        ___awmod@divisor 0072                          ___awmod@counter 0077  
                                 main@ch 0190                                   main@gr 01A8  
                                 _strcmp 179C                                   _strcpy 161D  
                                 login@i 003F                                   login@j 0032  
                __end_of_change_password 0DC6                         __end_of_set_time 0516  
                                 saved_w 007E                         __end_of_view_log 0D1A  
                              ??_putchar 0072                                ??_strncmp 0075  
                              ??_strncpy 0076                  __end_of__initialization 0046  
                   __end_of_display_time 09DF                          ??_i2c_rep_start 0072  
                    ___bmul@multiplicand 0072                           __pcstackCOMMON 0070  
                           __pidataBANK0 14C9                             __pidataBANK1 170F  
             ?_eeprom_at24c04_byte_write 0073                            __end_of_login 068F  
                        login@reset_flag 0025                        __end_of_i2c_start 14DA  
                      __end_of_i2c_write 14F8                        _i2c_wait_for_idle 1519  
                                ??_login 0026                       ?_i2c_wait_for_idle 0070  
                             __pbssBANK0 0039                               __pbssBANK1 00CE  
                             __pbssBANK3 01B1                                ?_i2c_read 0070  
                              ?_i2c_stop 0070                ??_init_display_controller 0076  
                             _clcd_print 173D                      ??_i2c_wait_for_idle 0072  
                             _clcd_putch 156F                               _clcd_write 15B7  
                             _clear_flag 0040                               __pmaintext 004A  
                        read_ds1307@addr 0074                            _log_car_event 0ADC  
                        read_ds1307@data 0075                             _clear_screen 1526  
                                ?___bmul 0072                               __pintentry 0004  
                     _display_dash_board 068F                                  _ACKSTAT 048E  
          eeprom_at24c04_byte_write@data 0073                                  ?_strcmp 0072  
                                ?_strcpy 0072                                  _T2CKPS0 0090  
                                _T2CKPS1 0091                      ?_display_dash_board 0025  
            __end_of_read_digital_keypad 16B9                         ?_change_password 0070  
              __end_of_i2c_wait_for_idle 1526                           login_menu@F990 00AC  
                           init_i2c@baud 0026                                  _SSPCON2 0091  
                              ?_get_time 0070                           login_menu@menu 002A  
                             __stringtab 1000                               ??_i2c_read 0072  
                             ??_i2c_stop 0072                                ?_init_i2c 0026  
                   __end_of_download_log 0F3E                                ?_init_adc 0070  
                              ?_read_adc 0072                        __end_of_clear_log 08C9  
                   ??_display_dash_board 0026                               _first_time 0050  
                         ?_log_car_event 0024                                ?_set_time 0070  
                     change_password@bar 0026                       change_password@key 0028  
                                ___awdiv 0B9F                                  ___awmod 0A83  
                              ?_view_log 0070                                  ___lldiv 0B37  
                                ___lwdiv 094C                               _read_event 0DC6  
                       main@control_flag 01AF                                  __ptext1 0C73  
                                __ptext2 0DC6                                  __ptext3 161D  
                                __ptext4 033D                                  __ptext5 168F  
                                __ptext6 1537                                  __ptext7 0F3E  
                                __ptext8 0516                                  __ptext9 08C9  
        __end_of_init_display_controller 0A83                        __end_of_init_clcd 1519  
                      __end_of_init_uart 179C                         ___awmod@dividend 0074  
                         main@reset_flag 01AD                        __end_of_log_event 161D  
                             _login_menu 0F3E                                  _putchar 1503  
                                main@key 01B0                                  clrloop0 14C2  
                                main@var 01A6                   change_password@display 004B  
                             ??_get_time 0076                                  _strncmp 08C9  
                                _strncpy 0907                     end_of_initialization 0046  
                            set_time@bar 0026                              set_time@key 0028  
                             ??_init_i2c 002A                              set_time@run 004C  
                             ??_init_adc 0072                               ??_read_adc 0074  
                            ?_clcd_print 0076                              ?_clcd_putch 0079  
                        ___lldiv@divisor 0072                              ?_clcd_write 0072  
                        ___lldiv@counter 0025                               ??_set_time 0025  
                             ??_view_log 007A                             __pstringtext 0700  
                                strcmp@r 0076                             _display_time 0992  
                          i2c_write@data 0072                            clcd_print@str 0076  
                             main@d_flag 01A9                          ??_log_car_event 0025  
                           login@attempt 00C1              ??_eeprom_at24c04_byte_write 0074  
                         __end_of___bmul 1599                              ?_read_event 0070  
                            view_log@key 0025                           __end_of_strcmp 17CE  
                         __end_of_strcpy 1642                      start_initialization 000F  
                            ?_login_menu 0025                                _i2c_start 14D1  
                            __end_of_isr 0C73                                _i2c_write 14ED  
               _eeprom_at24c04_str_write 0825                            clear_log@addr 0022  
                            putchar@data 0072                         change_password@i 003C  
                  __end_of_i2c_rep_start 1503                                 ??___bmul 0073  
                             init_fetch0 155C                            ??_init_ds1307 0076  
                            __pdataBANK0 004A                              __pdataBANK1 00A0  
                          ??_read_ds1307 0074                             _download_log 0E7C  
                               ??_strcmp 0074                                 ??_strcpy 0074  
                          ??_init_config 007A                            ??_init_timer2 0072  
                            __pbssCOMMON 007A                                ___latbits 0002  
                          __pcstackBANK0 0020                            __pcstackBANK3 0190  
                             ?_i2c_start 0070                               ?_i2c_write 0070  
              _eeprom_at24c04_byte_write 1668                  display_dash_board@event 0028  
                display_dash_board@speed 0025                         ___lwdiv@dividend 0078  
                              _clear_log 088E                                 ?___awdiv 0072  
                               ?___awmod 0072                                 ?___lldiv 0072  
                               ?___lwdiv 0076                                _clock_reg 0039  
                              __pstrings 1000                      __end_of_init_ds1307 155C  
                    read_adc@adc_reg_val 0074                      __end_of_read_ds1307 16E4  
                       ___lwdiv@quotient 0022                                 ?_putchar 0070  
                              _init_clcd 150E                      __end_of_init_config 088E  
                              _init_uart 176C                                 ?_strncmp 0072  
                               ?_strncpy 0072                                _log_event 15F8  
                          ?_write_ds1307 0073                      __end_of_init_timer2 14ED  
               ?_init_display_controller 0070                        interrupt_function 0004  
           ??_eeprom_at24c04_random_read 0074                                clear_ram0 14C1  
                            strncpy@from 0072                              strncpy@size 0074  
                           ??_clcd_print 0079                             ??_clcd_putch 007A  
                           ??_clcd_write 0073                               ?_clear_log 0070  
    eeprom_at24c04_byte_write@memory_loc 0076                              __stringbase 1012  
                              main@event 01AA                                main@speed 01AE  
                            ??_i2c_start 0072                       __end_of_clcd_print 176C  
                            ??_i2c_write 0072                       __end_of_clcd_putch 1584  
                     __end_of_clcd_write 15D7                               ?_init_clcd 0070  
                             ?_init_uart 0026                           ??_write_ds1307 0074  
                             ?_log_event 0070                      _init_digital_keypad 14B4  
                               _i2c_read 15D7                                 _i2c_stop 14DA  
                          set_time@b_pos 003D                 change_password@npassword 0029  
                   ?_init_digital_keypad 0070                              _init_ds1307 1549  
                           ??_read_event 0076                       __end_of__stringtab 1012  
                            _read_ds1307 16B9                              _init_config 0854  
                           ??_login_menu 0026                              _init_timer2 14E3  
             ??_eeprom_at24c04_str_write 0079                          ___lwdiv@divisor 0076  
                        ___lwdiv@counter 0021                                 __ptext10 0ADC  
                               __ptext11 0907                                 __ptext20 14B4  
                               __ptext12 15F8                                 __ptext21 150E  
                               __ptext13 0854                                 __ptext30 09DF  
                               __ptext22 0A2C                                 __ptext14 176C  
                               __ptext31 16B9                                 __ptext23 14BA  
                               __ptext15 14E3                                 __ptext40 0825  
                               __ptext32 14F8                                 __ptext24 0E7C  
                               __ptext16 17CE                                 __ptext41 1668  
                               __ptext33 15D7                                 __ptext25 1642  
                               __ptext17 0B37                                 __ptext50 094C  
                               __ptext42 14ED                                 __ptext34 0992  
                               __ptext26 1503                                 __ptext18 1549  
                               __ptext51 0C08                                 __ptext43 14DA  
                               __ptext35 0A83                                 __ptext27 16E4  
                               __ptext19 1599                                 __ptext44 14D1  
                               __ptext36 0B9F                                 __ptext28 068F  
                               __ptext45 1519                                 __ptext37 088E  
                               __ptext29 179C                                 __ptext46 1526  
                               __ptext38 1584             eeprom_at24c04_str_write@data 0077  
                               __ptext47 156F                                 __ptext39 0D1A  
                               __ptext48 173D                                 __ptext49 15B7  
                               _get_time 09DF                               strcpy@from 0072  
                               _init_i2c 17CE                                 _init_adc 14BA  
                               _read_adc 1537                  read_digital_keypad@mode 0073  
                read_digital_keypad@once 004A                                 _read_pos 007A  
                             strncmp@len 0073                       __end_of_read_event 0E7C  
                  __end_of_log_car_event 0B37                              ??_clear_log 0021  
                      ??_change_password 0025                            ?_clear_screen 0070  
                               _set_time 033D                                 main@F961 00A0  
                               main@F970 00B6                                 main@F957 00BE  
                     __end_of_login_menu 1000                                 _view_log 0C73  
                  ??_init_digital_keypad 0072                                 main@gear 0198  
                               main@wait 01A7                                 isr@count 00CE  
                               init_ram0 1560                           read_event@addr 0078  
                            ??_init_clcd 0078                              ??_init_uart 002A  
                               login@key 0031                              ??_log_event 0021  
                               intlevel1 0000                            init_uart@baud 0026  
     __end_of_eeprom_at24c04_random_read 170F               _eeprom_at24c04_random_read 16E4  
                       ___lldiv@dividend 0076                                strncmp@s1 0077  
                              strncmp@s2 0072                                stringcode 100A  
                         ??_clear_screen 0076                                strncpy@cp 0021  
                              strncpy@to 0020        __end_of_eeprom_at24c04_byte_write 168F  
                   __end_of_write_ds1307 15B7                      _read_digital_keypad 168F  
                          read_event@key 0077                                 strcmp@s1 0077  
                               strcmp@s2 0072                         ___lldiv@quotient 0021  
                               strcpy@cp 0075                                 strcpy@to 0076  
                               stringtab 1000                              _return_time 004D  
                   ?_read_digital_keypad 0070                         write_ds1307@addr 0074  
                       write_ds1307@data 0073     eeprom_at24c04_random_read@memory_loc 0074  
                       download_log@addr 0077  
